   1              	 .syntax unified
   2              	 .cpu cortex-m4
   3              	 .eabi_attribute 27,3
   4              	 .fpu fpv4-sp-d16
   5              	 .eabi_attribute 20,1
   6              	 .eabi_attribute 21,1
   7              	 .eabi_attribute 23,3
   8              	 .eabi_attribute 24,1
   9              	 .eabi_attribute 25,1
  10              	 .eabi_attribute 26,1
  11              	 .eabi_attribute 30,6
  12              	 .eabi_attribute 34,1
  13              	 .eabi_attribute 18,4
  14              	 .thumb
  15              	 .file "main.c"
  16              	 .text
  17              	.Ltext0:
  18              	 .cfi_sections .debug_frame
  19              	 .section .text.XMC_GPIO_SetOutputHigh,"ax",%progbits
  20              	 .align 2
  21              	 .thumb
  22              	 .thumb_func
  24              	XMC_GPIO_SetOutputHigh:
  25              	.LFB176:
  26              	 .file 1 "E:/xmc_1124/XMC4300_Relax_EtherCat_APP_Slave_SSC/Libraries/XMCLib/inc/xmc_gpio.h"
   1:E:/xmc_1124/XMC4300_Relax_EtherCat_APP_Slave_SSC/Libraries/XMCLib/inc\xmc_gpio.h **** /**
   2:E:/xmc_1124/XMC4300_Relax_EtherCat_APP_Slave_SSC/Libraries/XMCLib/inc\xmc_gpio.h ****  * @file xmc_gpio.h
   3:E:/xmc_1124/XMC4300_Relax_EtherCat_APP_Slave_SSC/Libraries/XMCLib/inc\xmc_gpio.h ****  * @date 2015-06-20
   4:E:/xmc_1124/XMC4300_Relax_EtherCat_APP_Slave_SSC/Libraries/XMCLib/inc\xmc_gpio.h ****  *
   5:E:/xmc_1124/XMC4300_Relax_EtherCat_APP_Slave_SSC/Libraries/XMCLib/inc\xmc_gpio.h ****  * @cond
   6:E:/xmc_1124/XMC4300_Relax_EtherCat_APP_Slave_SSC/Libraries/XMCLib/inc\xmc_gpio.h ****   *************************************************************************************************
   7:E:/xmc_1124/XMC4300_Relax_EtherCat_APP_Slave_SSC/Libraries/XMCLib/inc\xmc_gpio.h ****  * XMClib v2.1.6 - XMC Peripheral Driver Library 
   8:E:/xmc_1124/XMC4300_Relax_EtherCat_APP_Slave_SSC/Libraries/XMCLib/inc\xmc_gpio.h ****  *
   9:E:/xmc_1124/XMC4300_Relax_EtherCat_APP_Slave_SSC/Libraries/XMCLib/inc\xmc_gpio.h ****  * Copyright (c) 2015-2016, Infineon Technologies AG
  10:E:/xmc_1124/XMC4300_Relax_EtherCat_APP_Slave_SSC/Libraries/XMCLib/inc\xmc_gpio.h ****  * All rights reserved.                        
  11:E:/xmc_1124/XMC4300_Relax_EtherCat_APP_Slave_SSC/Libraries/XMCLib/inc\xmc_gpio.h ****  *                                             
  12:E:/xmc_1124/XMC4300_Relax_EtherCat_APP_Slave_SSC/Libraries/XMCLib/inc\xmc_gpio.h ****  * Redistribution and use in source and binary forms, with or without modification,are permitted pr
  13:E:/xmc_1124/XMC4300_Relax_EtherCat_APP_Slave_SSC/Libraries/XMCLib/inc\xmc_gpio.h ****  * following conditions are met:   
  14:E:/xmc_1124/XMC4300_Relax_EtherCat_APP_Slave_SSC/Libraries/XMCLib/inc\xmc_gpio.h ****  *                                                                              
  15:E:/xmc_1124/XMC4300_Relax_EtherCat_APP_Slave_SSC/Libraries/XMCLib/inc\xmc_gpio.h ****  * Redistributions of source code must retain the above copyright notice, this list of conditions a
  16:E:/xmc_1124/XMC4300_Relax_EtherCat_APP_Slave_SSC/Libraries/XMCLib/inc\xmc_gpio.h ****  * disclaimer.                        
  17:E:/xmc_1124/XMC4300_Relax_EtherCat_APP_Slave_SSC/Libraries/XMCLib/inc\xmc_gpio.h ****  * 
  18:E:/xmc_1124/XMC4300_Relax_EtherCat_APP_Slave_SSC/Libraries/XMCLib/inc\xmc_gpio.h ****  * Redistributions in binary form must reproduce the above copyright notice, this list of condition
  19:E:/xmc_1124/XMC4300_Relax_EtherCat_APP_Slave_SSC/Libraries/XMCLib/inc\xmc_gpio.h ****  * disclaimer in the documentation and/or other materials provided with the distribution.          
  20:E:/xmc_1124/XMC4300_Relax_EtherCat_APP_Slave_SSC/Libraries/XMCLib/inc\xmc_gpio.h ****  * 
  21:E:/xmc_1124/XMC4300_Relax_EtherCat_APP_Slave_SSC/Libraries/XMCLib/inc\xmc_gpio.h ****  * Neither the name of the copyright holders nor the names of its contributors may be used to endor
  22:E:/xmc_1124/XMC4300_Relax_EtherCat_APP_Slave_SSC/Libraries/XMCLib/inc\xmc_gpio.h ****  * products derived from this software without specific prior written permission.                  
  23:E:/xmc_1124/XMC4300_Relax_EtherCat_APP_Slave_SSC/Libraries/XMCLib/inc\xmc_gpio.h ****  *                                                                              
  24:E:/xmc_1124/XMC4300_Relax_EtherCat_APP_Slave_SSC/Libraries/XMCLib/inc\xmc_gpio.h ****  * THIS SOFTWARE IS PROVIDED BY THE COPYRIGHT HOLDERS AND CONTRIBUTORS "AS IS" AND ANY EXPRESS OR I
  25:E:/xmc_1124/XMC4300_Relax_EtherCat_APP_Slave_SSC/Libraries/XMCLib/inc\xmc_gpio.h ****  * INCLUDING, BUT NOT LIMITED TO, THE IMPLIED WARRANTIES OF MERCHANTABILITY AND FITNESS FOR A PARTI
  26:E:/xmc_1124/XMC4300_Relax_EtherCat_APP_Slave_SSC/Libraries/XMCLib/inc\xmc_gpio.h ****  * DISCLAIMED. IN NO EVENT SHALL THE COPYRIGHT HOLDER OR CONTRIBUTORS BE LIABLE  FOR ANY DIRECT, IN
  27:E:/xmc_1124/XMC4300_Relax_EtherCat_APP_Slave_SSC/Libraries/XMCLib/inc\xmc_gpio.h ****  * SPECIAL, EXEMPLARY, OR CONSEQUENTIAL DAMAGES (INCLUDING, BUT NOT LIMITED TO, PROCUREMENT OF SUBS
  28:E:/xmc_1124/XMC4300_Relax_EtherCat_APP_Slave_SSC/Libraries/XMCLib/inc\xmc_gpio.h ****  * SERVICES; LOSS OF USE, DATA, OR PROFITS; OR BUSINESS INTERRUPTION) HOWEVER CAUSED AND ON ANY THE
  29:E:/xmc_1124/XMC4300_Relax_EtherCat_APP_Slave_SSC/Libraries/XMCLib/inc\xmc_gpio.h ****  * WHETHER IN CONTRACT, STRICT LIABILITY,OR TORT (INCLUDING NEGLIGENCE OR OTHERWISE) ARISING IN ANY
  30:E:/xmc_1124/XMC4300_Relax_EtherCat_APP_Slave_SSC/Libraries/XMCLib/inc\xmc_gpio.h ****  * OF THIS SOFTWARE, EVEN IF ADVISED OF THE POSSIBILITY OF SUCH DAMAGE.                            
  31:E:/xmc_1124/XMC4300_Relax_EtherCat_APP_Slave_SSC/Libraries/XMCLib/inc\xmc_gpio.h ****  *                                                                              
  32:E:/xmc_1124/XMC4300_Relax_EtherCat_APP_Slave_SSC/Libraries/XMCLib/inc\xmc_gpio.h ****  * To improve the quality of the software, users are encouraged to share modifications, enhancement
  33:E:/xmc_1124/XMC4300_Relax_EtherCat_APP_Slave_SSC/Libraries/XMCLib/inc\xmc_gpio.h ****  * Infineon Technologies AG dave@infineon.com).                                                    
  34:E:/xmc_1124/XMC4300_Relax_EtherCat_APP_Slave_SSC/Libraries/XMCLib/inc\xmc_gpio.h ****  **************************************************************************************************
  35:E:/xmc_1124/XMC4300_Relax_EtherCat_APP_Slave_SSC/Libraries/XMCLib/inc\xmc_gpio.h ****  *
  36:E:/xmc_1124/XMC4300_Relax_EtherCat_APP_Slave_SSC/Libraries/XMCLib/inc\xmc_gpio.h ****  * Change History
  37:E:/xmc_1124/XMC4300_Relax_EtherCat_APP_Slave_SSC/Libraries/XMCLib/inc\xmc_gpio.h ****  * --------------
  38:E:/xmc_1124/XMC4300_Relax_EtherCat_APP_Slave_SSC/Libraries/XMCLib/inc\xmc_gpio.h ****  *
  39:E:/xmc_1124/XMC4300_Relax_EtherCat_APP_Slave_SSC/Libraries/XMCLib/inc\xmc_gpio.h ****  * 2015-02-20:
  40:E:/xmc_1124/XMC4300_Relax_EtherCat_APP_Slave_SSC/Libraries/XMCLib/inc\xmc_gpio.h ****  *     - Initial draft<br>
  41:E:/xmc_1124/XMC4300_Relax_EtherCat_APP_Slave_SSC/Libraries/XMCLib/inc\xmc_gpio.h ****  *     - Documentation improved <br>
  42:E:/xmc_1124/XMC4300_Relax_EtherCat_APP_Slave_SSC/Libraries/XMCLib/inc\xmc_gpio.h ****  *      
  43:E:/xmc_1124/XMC4300_Relax_EtherCat_APP_Slave_SSC/Libraries/XMCLib/inc\xmc_gpio.h ****  * 2015-06-20:
  44:E:/xmc_1124/XMC4300_Relax_EtherCat_APP_Slave_SSC/Libraries/XMCLib/inc\xmc_gpio.h ****  *     - Removed version macros and declaration of GetDriverVersion API
  45:E:/xmc_1124/XMC4300_Relax_EtherCat_APP_Slave_SSC/Libraries/XMCLib/inc\xmc_gpio.h ****  *
  46:E:/xmc_1124/XMC4300_Relax_EtherCat_APP_Slave_SSC/Libraries/XMCLib/inc\xmc_gpio.h ****  * @endcond
  47:E:/xmc_1124/XMC4300_Relax_EtherCat_APP_Slave_SSC/Libraries/XMCLib/inc\xmc_gpio.h ****  *
  48:E:/xmc_1124/XMC4300_Relax_EtherCat_APP_Slave_SSC/Libraries/XMCLib/inc\xmc_gpio.h ****  */
  49:E:/xmc_1124/XMC4300_Relax_EtherCat_APP_Slave_SSC/Libraries/XMCLib/inc\xmc_gpio.h **** 
  50:E:/xmc_1124/XMC4300_Relax_EtherCat_APP_Slave_SSC/Libraries/XMCLib/inc\xmc_gpio.h **** #ifndef XMC_GPIO_H
  51:E:/xmc_1124/XMC4300_Relax_EtherCat_APP_Slave_SSC/Libraries/XMCLib/inc\xmc_gpio.h **** #define XMC_GPIO_H
  52:E:/xmc_1124/XMC4300_Relax_EtherCat_APP_Slave_SSC/Libraries/XMCLib/inc\xmc_gpio.h **** 
  53:E:/xmc_1124/XMC4300_Relax_EtherCat_APP_Slave_SSC/Libraries/XMCLib/inc\xmc_gpio.h **** /**************************************************************************************************
  54:E:/xmc_1124/XMC4300_Relax_EtherCat_APP_Slave_SSC/Libraries/XMCLib/inc\xmc_gpio.h ****  * HEADER FILES
  55:E:/xmc_1124/XMC4300_Relax_EtherCat_APP_Slave_SSC/Libraries/XMCLib/inc\xmc_gpio.h ****  **************************************************************************************************
  56:E:/xmc_1124/XMC4300_Relax_EtherCat_APP_Slave_SSC/Libraries/XMCLib/inc\xmc_gpio.h **** 
  57:E:/xmc_1124/XMC4300_Relax_EtherCat_APP_Slave_SSC/Libraries/XMCLib/inc\xmc_gpio.h **** #include "xmc_common.h"
  58:E:/xmc_1124/XMC4300_Relax_EtherCat_APP_Slave_SSC/Libraries/XMCLib/inc\xmc_gpio.h **** 
  59:E:/xmc_1124/XMC4300_Relax_EtherCat_APP_Slave_SSC/Libraries/XMCLib/inc\xmc_gpio.h **** /**
  60:E:/xmc_1124/XMC4300_Relax_EtherCat_APP_Slave_SSC/Libraries/XMCLib/inc\xmc_gpio.h ****  * @addtogroup XMClib XMC Peripheral Library
  61:E:/xmc_1124/XMC4300_Relax_EtherCat_APP_Slave_SSC/Libraries/XMCLib/inc\xmc_gpio.h ****  * @{
  62:E:/xmc_1124/XMC4300_Relax_EtherCat_APP_Slave_SSC/Libraries/XMCLib/inc\xmc_gpio.h ****  */
  63:E:/xmc_1124/XMC4300_Relax_EtherCat_APP_Slave_SSC/Libraries/XMCLib/inc\xmc_gpio.h **** 
  64:E:/xmc_1124/XMC4300_Relax_EtherCat_APP_Slave_SSC/Libraries/XMCLib/inc\xmc_gpio.h **** /**
  65:E:/xmc_1124/XMC4300_Relax_EtherCat_APP_Slave_SSC/Libraries/XMCLib/inc\xmc_gpio.h ****  * @addtogroup GPIO
  66:E:/xmc_1124/XMC4300_Relax_EtherCat_APP_Slave_SSC/Libraries/XMCLib/inc\xmc_gpio.h ****  * @brief General Purpose Input Output (GPIO) driver for the XMC microcontroller family.
  67:E:/xmc_1124/XMC4300_Relax_EtherCat_APP_Slave_SSC/Libraries/XMCLib/inc\xmc_gpio.h ****  *
  68:E:/xmc_1124/XMC4300_Relax_EtherCat_APP_Slave_SSC/Libraries/XMCLib/inc\xmc_gpio.h ****  * GPIO driver provide a generic and very flexible software interface for all standard digital I/O 
  69:E:/xmc_1124/XMC4300_Relax_EtherCat_APP_Slave_SSC/Libraries/XMCLib/inc\xmc_gpio.h ****  * Each port slice has individual interfaces for the operation as General Purpose I/O and it furthe
  70:E:/xmc_1124/XMC4300_Relax_EtherCat_APP_Slave_SSC/Libraries/XMCLib/inc\xmc_gpio.h ****  * connectivity to the on-chip periphery and the control for the pad characteristics. 
  71:E:/xmc_1124/XMC4300_Relax_EtherCat_APP_Slave_SSC/Libraries/XMCLib/inc\xmc_gpio.h ****  *
  72:E:/xmc_1124/XMC4300_Relax_EtherCat_APP_Slave_SSC/Libraries/XMCLib/inc\xmc_gpio.h ****  * The driver is divided into Input and Output mode.
  73:E:/xmc_1124/XMC4300_Relax_EtherCat_APP_Slave_SSC/Libraries/XMCLib/inc\xmc_gpio.h ****  *
  74:E:/xmc_1124/XMC4300_Relax_EtherCat_APP_Slave_SSC/Libraries/XMCLib/inc\xmc_gpio.h ****  * Input mode features:
  75:E:/xmc_1124/XMC4300_Relax_EtherCat_APP_Slave_SSC/Libraries/XMCLib/inc\xmc_gpio.h ****  * -# Configuration structure XMC_GPIO_CONFIG_t and initialization function XMC_GPIO_Init()
  76:E:/xmc_1124/XMC4300_Relax_EtherCat_APP_Slave_SSC/Libraries/XMCLib/inc\xmc_gpio.h ****  * -# Allows the selection of weak pull-up or pull-down device. Configuration structure XMC_GPIO_MO
  77:E:/xmc_1124/XMC4300_Relax_EtherCat_APP_Slave_SSC/Libraries/XMCLib/inc\xmc_gpio.h ****  * \if XMC1
  78:E:/xmc_1124/XMC4300_Relax_EtherCat_APP_Slave_SSC/Libraries/XMCLib/inc\xmc_gpio.h ****  * -# Allows the selection of input hysteresis. XMC_GPIO_SetInputHysteresis()
  79:E:/xmc_1124/XMC4300_Relax_EtherCat_APP_Slave_SSC/Libraries/XMCLib/inc\xmc_gpio.h ****  * \endif
  80:E:/xmc_1124/XMC4300_Relax_EtherCat_APP_Slave_SSC/Libraries/XMCLib/inc\xmc_gpio.h ****  *
  81:E:/xmc_1124/XMC4300_Relax_EtherCat_APP_Slave_SSC/Libraries/XMCLib/inc\xmc_gpio.h ****  * 
  82:E:/xmc_1124/XMC4300_Relax_EtherCat_APP_Slave_SSC/Libraries/XMCLib/inc\xmc_gpio.h ****  * Output mode features:
  83:E:/xmc_1124/XMC4300_Relax_EtherCat_APP_Slave_SSC/Libraries/XMCLib/inc\xmc_gpio.h ****  * -# Allows the selection of push pull/open drain and Alternate output. Configuration structure XM
  84:E:/xmc_1124/XMC4300_Relax_EtherCat_APP_Slave_SSC/Libraries/XMCLib/inc\xmc_gpio.h ****  * \if XMC4
  85:E:/xmc_1124/XMC4300_Relax_EtherCat_APP_Slave_SSC/Libraries/XMCLib/inc\xmc_gpio.h ****  * -# Allows the selection of pad driver strength. Configuration structure XMC_GPIO_OUTPUT_STRENGTH
  86:E:/xmc_1124/XMC4300_Relax_EtherCat_APP_Slave_SSC/Libraries/XMCLib/inc\xmc_gpio.h ****  * \endif
  87:E:/xmc_1124/XMC4300_Relax_EtherCat_APP_Slave_SSC/Libraries/XMCLib/inc\xmc_gpio.h ****  *
  88:E:/xmc_1124/XMC4300_Relax_EtherCat_APP_Slave_SSC/Libraries/XMCLib/inc\xmc_gpio.h ****  * -# Allows the selection of initial output level. Configuration structure XMC_GPIO_OUTPUT_LEVEL_t
  89:E:/xmc_1124/XMC4300_Relax_EtherCat_APP_Slave_SSC/Libraries/XMCLib/inc\xmc_gpio.h ****  *
  90:E:/xmc_1124/XMC4300_Relax_EtherCat_APP_Slave_SSC/Libraries/XMCLib/inc\xmc_gpio.h ****  *@{
  91:E:/xmc_1124/XMC4300_Relax_EtherCat_APP_Slave_SSC/Libraries/XMCLib/inc\xmc_gpio.h ****  */
  92:E:/xmc_1124/XMC4300_Relax_EtherCat_APP_Slave_SSC/Libraries/XMCLib/inc\xmc_gpio.h ****  
  93:E:/xmc_1124/XMC4300_Relax_EtherCat_APP_Slave_SSC/Libraries/XMCLib/inc\xmc_gpio.h **** /**************************************************************************************************
  94:E:/xmc_1124/XMC4300_Relax_EtherCat_APP_Slave_SSC/Libraries/XMCLib/inc\xmc_gpio.h ****  * MACROS
  95:E:/xmc_1124/XMC4300_Relax_EtherCat_APP_Slave_SSC/Libraries/XMCLib/inc\xmc_gpio.h ****  **************************************************************************************************
  96:E:/xmc_1124/XMC4300_Relax_EtherCat_APP_Slave_SSC/Libraries/XMCLib/inc\xmc_gpio.h **** 
  97:E:/xmc_1124/XMC4300_Relax_EtherCat_APP_Slave_SSC/Libraries/XMCLib/inc\xmc_gpio.h **** #define PORT_IOCR_PC_Pos PORT0_IOCR0_PC0_Pos
  98:E:/xmc_1124/XMC4300_Relax_EtherCat_APP_Slave_SSC/Libraries/XMCLib/inc\xmc_gpio.h **** #define PORT_IOCR_PC_Msk PORT0_IOCR0_PC0_Msk
  99:E:/xmc_1124/XMC4300_Relax_EtherCat_APP_Slave_SSC/Libraries/XMCLib/inc\xmc_gpio.h **** 
 100:E:/xmc_1124/XMC4300_Relax_EtherCat_APP_Slave_SSC/Libraries/XMCLib/inc\xmc_gpio.h **** #define PORT_IOCR_PC_Size 				(8U)
 101:E:/xmc_1124/XMC4300_Relax_EtherCat_APP_Slave_SSC/Libraries/XMCLib/inc\xmc_gpio.h **** 											
 102:E:/xmc_1124/XMC4300_Relax_EtherCat_APP_Slave_SSC/Libraries/XMCLib/inc\xmc_gpio.h **** 
 103:E:/xmc_1124/XMC4300_Relax_EtherCat_APP_Slave_SSC/Libraries/XMCLib/inc\xmc_gpio.h **** #define XMC_GPIO_CHECK_OUTPUT_LEVEL(level) ((level == XMC_GPIO_OUTPUT_LEVEL_LOW) || \
 104:E:/xmc_1124/XMC4300_Relax_EtherCat_APP_Slave_SSC/Libraries/XMCLib/inc\xmc_gpio.h ****                                             (level == XMC_GPIO_OUTPUT_LEVEL_HIGH))
 105:E:/xmc_1124/XMC4300_Relax_EtherCat_APP_Slave_SSC/Libraries/XMCLib/inc\xmc_gpio.h ****                                             
 106:E:/xmc_1124/XMC4300_Relax_EtherCat_APP_Slave_SSC/Libraries/XMCLib/inc\xmc_gpio.h **** #define XMC_GPIO_CHECK_HWCTRL(hwctrl) ((hwctrl == XMC_GPIO_HWCTRL_DISABLED) || \
 107:E:/xmc_1124/XMC4300_Relax_EtherCat_APP_Slave_SSC/Libraries/XMCLib/inc\xmc_gpio.h ****                                        (hwctrl == XMC_GPIO_HWCTRL_PERIPHERAL1) || \
 108:E:/xmc_1124/XMC4300_Relax_EtherCat_APP_Slave_SSC/Libraries/XMCLib/inc\xmc_gpio.h ****                                        (hwctrl == XMC_GPIO_HWCTRL_PERIPHERAL2))                    
 109:E:/xmc_1124/XMC4300_Relax_EtherCat_APP_Slave_SSC/Libraries/XMCLib/inc\xmc_gpio.h ****                                             
 110:E:/xmc_1124/XMC4300_Relax_EtherCat_APP_Slave_SSC/Libraries/XMCLib/inc\xmc_gpio.h **** /**************************************************************************************************
 111:E:/xmc_1124/XMC4300_Relax_EtherCat_APP_Slave_SSC/Libraries/XMCLib/inc\xmc_gpio.h ****  * ENUMS
 112:E:/xmc_1124/XMC4300_Relax_EtherCat_APP_Slave_SSC/Libraries/XMCLib/inc\xmc_gpio.h ****  **************************************************************************************************
 113:E:/xmc_1124/XMC4300_Relax_EtherCat_APP_Slave_SSC/Libraries/XMCLib/inc\xmc_gpio.h **** 
 114:E:/xmc_1124/XMC4300_Relax_EtherCat_APP_Slave_SSC/Libraries/XMCLib/inc\xmc_gpio.h **** 
 115:E:/xmc_1124/XMC4300_Relax_EtherCat_APP_Slave_SSC/Libraries/XMCLib/inc\xmc_gpio.h **** /**
 116:E:/xmc_1124/XMC4300_Relax_EtherCat_APP_Slave_SSC/Libraries/XMCLib/inc\xmc_gpio.h ****  * Defines output level of a pin. Use type \a XMC_GPIO_OUTPUT_LEVEL_t for this enum.
 117:E:/xmc_1124/XMC4300_Relax_EtherCat_APP_Slave_SSC/Libraries/XMCLib/inc\xmc_gpio.h ****  */
 118:E:/xmc_1124/XMC4300_Relax_EtherCat_APP_Slave_SSC/Libraries/XMCLib/inc\xmc_gpio.h **** typedef enum XMC_GPIO_OUTPUT_LEVEL
 119:E:/xmc_1124/XMC4300_Relax_EtherCat_APP_Slave_SSC/Libraries/XMCLib/inc\xmc_gpio.h **** {
 120:E:/xmc_1124/XMC4300_Relax_EtherCat_APP_Slave_SSC/Libraries/XMCLib/inc\xmc_gpio.h ****   XMC_GPIO_OUTPUT_LEVEL_LOW  = 0x10000U, /**<  Reset bit */
 121:E:/xmc_1124/XMC4300_Relax_EtherCat_APP_Slave_SSC/Libraries/XMCLib/inc\xmc_gpio.h ****   XMC_GPIO_OUTPUT_LEVEL_HIGH = 0x1U, 	/**< Set bit  */
 122:E:/xmc_1124/XMC4300_Relax_EtherCat_APP_Slave_SSC/Libraries/XMCLib/inc\xmc_gpio.h **** } XMC_GPIO_OUTPUT_LEVEL_t;
 123:E:/xmc_1124/XMC4300_Relax_EtherCat_APP_Slave_SSC/Libraries/XMCLib/inc\xmc_gpio.h **** 
 124:E:/xmc_1124/XMC4300_Relax_EtherCat_APP_Slave_SSC/Libraries/XMCLib/inc\xmc_gpio.h **** /**
 125:E:/xmc_1124/XMC4300_Relax_EtherCat_APP_Slave_SSC/Libraries/XMCLib/inc\xmc_gpio.h ****  * Defines direct hardware control characteristics of the pin . Use type \a XMC_GPIO_HWCTRL_t for t
 126:E:/xmc_1124/XMC4300_Relax_EtherCat_APP_Slave_SSC/Libraries/XMCLib/inc\xmc_gpio.h ****  */
 127:E:/xmc_1124/XMC4300_Relax_EtherCat_APP_Slave_SSC/Libraries/XMCLib/inc\xmc_gpio.h **** typedef enum XMC_GPIO_HWCTRL
 128:E:/xmc_1124/XMC4300_Relax_EtherCat_APP_Slave_SSC/Libraries/XMCLib/inc\xmc_gpio.h **** {
 129:E:/xmc_1124/XMC4300_Relax_EtherCat_APP_Slave_SSC/Libraries/XMCLib/inc\xmc_gpio.h ****   XMC_GPIO_HWCTRL_DISABLED     = 0x0U, /**<  Software control only */
 130:E:/xmc_1124/XMC4300_Relax_EtherCat_APP_Slave_SSC/Libraries/XMCLib/inc\xmc_gpio.h ****   XMC_GPIO_HWCTRL_PERIPHERAL1  = 0x1U, /**<  HWI0/HWO0 control path can override the software confi
 131:E:/xmc_1124/XMC4300_Relax_EtherCat_APP_Slave_SSC/Libraries/XMCLib/inc\xmc_gpio.h ****   XMC_GPIO_HWCTRL_PERIPHERAL2  = 0x2U  /**<  HWI1/HWO1 control path can override the software confi
 132:E:/xmc_1124/XMC4300_Relax_EtherCat_APP_Slave_SSC/Libraries/XMCLib/inc\xmc_gpio.h **** } XMC_GPIO_HWCTRL_t;
 133:E:/xmc_1124/XMC4300_Relax_EtherCat_APP_Slave_SSC/Libraries/XMCLib/inc\xmc_gpio.h **** 
 134:E:/xmc_1124/XMC4300_Relax_EtherCat_APP_Slave_SSC/Libraries/XMCLib/inc\xmc_gpio.h **** /**************************************************************************************************
 135:E:/xmc_1124/XMC4300_Relax_EtherCat_APP_Slave_SSC/Libraries/XMCLib/inc\xmc_gpio.h ****  * DEVICE FAMILY EXTENSIONS
 136:E:/xmc_1124/XMC4300_Relax_EtherCat_APP_Slave_SSC/Libraries/XMCLib/inc\xmc_gpio.h ****  **************************************************************************************************
 137:E:/xmc_1124/XMC4300_Relax_EtherCat_APP_Slave_SSC/Libraries/XMCLib/inc\xmc_gpio.h **** 
 138:E:/xmc_1124/XMC4300_Relax_EtherCat_APP_Slave_SSC/Libraries/XMCLib/inc\xmc_gpio.h ****  #if UC_FAMILY == XMC1
 139:E:/xmc_1124/XMC4300_Relax_EtherCat_APP_Slave_SSC/Libraries/XMCLib/inc\xmc_gpio.h **** #include "xmc1_gpio.h"
 140:E:/xmc_1124/XMC4300_Relax_EtherCat_APP_Slave_SSC/Libraries/XMCLib/inc\xmc_gpio.h **** #elif UC_FAMILY == XMC4
 141:E:/xmc_1124/XMC4300_Relax_EtherCat_APP_Slave_SSC/Libraries/XMCLib/inc\xmc_gpio.h **** #include "xmc4_gpio.h"
 142:E:/xmc_1124/XMC4300_Relax_EtherCat_APP_Slave_SSC/Libraries/XMCLib/inc\xmc_gpio.h **** #else
 143:E:/xmc_1124/XMC4300_Relax_EtherCat_APP_Slave_SSC/Libraries/XMCLib/inc\xmc_gpio.h **** #error "xmc_gpio.h: family device not supported"
 144:E:/xmc_1124/XMC4300_Relax_EtherCat_APP_Slave_SSC/Libraries/XMCLib/inc\xmc_gpio.h **** #endif
 145:E:/xmc_1124/XMC4300_Relax_EtherCat_APP_Slave_SSC/Libraries/XMCLib/inc\xmc_gpio.h **** 
 146:E:/xmc_1124/XMC4300_Relax_EtherCat_APP_Slave_SSC/Libraries/XMCLib/inc\xmc_gpio.h **** /**************************************************************************************************
 147:E:/xmc_1124/XMC4300_Relax_EtherCat_APP_Slave_SSC/Libraries/XMCLib/inc\xmc_gpio.h ****  * API PROTOTYPES
 148:E:/xmc_1124/XMC4300_Relax_EtherCat_APP_Slave_SSC/Libraries/XMCLib/inc\xmc_gpio.h ****  **************************************************************************************************
 149:E:/xmc_1124/XMC4300_Relax_EtherCat_APP_Slave_SSC/Libraries/XMCLib/inc\xmc_gpio.h **** 
 150:E:/xmc_1124/XMC4300_Relax_EtherCat_APP_Slave_SSC/Libraries/XMCLib/inc\xmc_gpio.h **** #ifdef __cplusplus
 151:E:/xmc_1124/XMC4300_Relax_EtherCat_APP_Slave_SSC/Libraries/XMCLib/inc\xmc_gpio.h **** extern "C" {
 152:E:/xmc_1124/XMC4300_Relax_EtherCat_APP_Slave_SSC/Libraries/XMCLib/inc\xmc_gpio.h **** #endif
 153:E:/xmc_1124/XMC4300_Relax_EtherCat_APP_Slave_SSC/Libraries/XMCLib/inc\xmc_gpio.h **** 
 154:E:/xmc_1124/XMC4300_Relax_EtherCat_APP_Slave_SSC/Libraries/XMCLib/inc\xmc_gpio.h **** 
 155:E:/xmc_1124/XMC4300_Relax_EtherCat_APP_Slave_SSC/Libraries/XMCLib/inc\xmc_gpio.h **** /**
 156:E:/xmc_1124/XMC4300_Relax_EtherCat_APP_Slave_SSC/Libraries/XMCLib/inc\xmc_gpio.h ****  * @param  port	  Constant pointer pointing to GPIO port, to access port registers like Pn_OUT,Pn_O
 157:E:/xmc_1124/XMC4300_Relax_EtherCat_APP_Slave_SSC/Libraries/XMCLib/inc\xmc_gpio.h ****  * @param  pin	  Port pin number.
 158:E:/xmc_1124/XMC4300_Relax_EtherCat_APP_Slave_SSC/Libraries/XMCLib/inc\xmc_gpio.h ****  * @param  config GPIO configuration data structure. Refer data structure @ref XMC_GPIO_CONFIG_t fo
 159:E:/xmc_1124/XMC4300_Relax_EtherCat_APP_Slave_SSC/Libraries/XMCLib/inc\xmc_gpio.h ****  *
 160:E:/xmc_1124/XMC4300_Relax_EtherCat_APP_Slave_SSC/Libraries/XMCLib/inc\xmc_gpio.h ****  * @return None
 161:E:/xmc_1124/XMC4300_Relax_EtherCat_APP_Slave_SSC/Libraries/XMCLib/inc\xmc_gpio.h ****  *
 162:E:/xmc_1124/XMC4300_Relax_EtherCat_APP_Slave_SSC/Libraries/XMCLib/inc\xmc_gpio.h ****  * \par<b>Description:</b><br>
 163:E:/xmc_1124/XMC4300_Relax_EtherCat_APP_Slave_SSC/Libraries/XMCLib/inc\xmc_gpio.h ****  * \if XMC1
 164:E:/xmc_1124/XMC4300_Relax_EtherCat_APP_Slave_SSC/Libraries/XMCLib/inc\xmc_gpio.h ****  * Initializes input / output mode settings like, pull up / pull down devices,hysteresis, push pull
 165:E:/xmc_1124/XMC4300_Relax_EtherCat_APP_Slave_SSC/Libraries/XMCLib/inc\xmc_gpio.h ****  * Also configures alternate function outputs and clears hardware port control for a selected \a po
 166:E:/xmc_1124/XMC4300_Relax_EtherCat_APP_Slave_SSC/Libraries/XMCLib/inc\xmc_gpio.h ****  * \a config provides selected I/O settings. It configures hardware registers Pn_IOCR,Pn_OUT, Pn_OM
 167:E:/xmc_1124/XMC4300_Relax_EtherCat_APP_Slave_SSC/Libraries/XMCLib/inc\xmc_gpio.h ****  * \endif
 168:E:/xmc_1124/XMC4300_Relax_EtherCat_APP_Slave_SSC/Libraries/XMCLib/inc\xmc_gpio.h ****  * \if XMC4
 169:E:/xmc_1124/XMC4300_Relax_EtherCat_APP_Slave_SSC/Libraries/XMCLib/inc\xmc_gpio.h ****  * Initializes input / output mode settings like, pull up / pull down devices,push pull /open drain
 170:E:/xmc_1124/XMC4300_Relax_EtherCat_APP_Slave_SSC/Libraries/XMCLib/inc\xmc_gpio.h ****  * Also configures alternate function outputs and clears hardware port control for selected \a port
 171:E:/xmc_1124/XMC4300_Relax_EtherCat_APP_Slave_SSC/Libraries/XMCLib/inc\xmc_gpio.h ****  * It configures hardware registers Pn_IOCR,Pn_OUT,Pn_OMR,Pn_PDISC and Pn_PDR.\n
 172:E:/xmc_1124/XMC4300_Relax_EtherCat_APP_Slave_SSC/Libraries/XMCLib/inc\xmc_gpio.h ****  * \endif
 173:E:/xmc_1124/XMC4300_Relax_EtherCat_APP_Slave_SSC/Libraries/XMCLib/inc\xmc_gpio.h ****  *
 174:E:/xmc_1124/XMC4300_Relax_EtherCat_APP_Slave_SSC/Libraries/XMCLib/inc\xmc_gpio.h ****  * \par<b>Related APIs:</b><BR>
 175:E:/xmc_1124/XMC4300_Relax_EtherCat_APP_Slave_SSC/Libraries/XMCLib/inc\xmc_gpio.h ****  *  None
 176:E:/xmc_1124/XMC4300_Relax_EtherCat_APP_Slave_SSC/Libraries/XMCLib/inc\xmc_gpio.h ****  *
 177:E:/xmc_1124/XMC4300_Relax_EtherCat_APP_Slave_SSC/Libraries/XMCLib/inc\xmc_gpio.h ****  * \par<b>Note:</b><br>
 178:E:/xmc_1124/XMC4300_Relax_EtherCat_APP_Slave_SSC/Libraries/XMCLib/inc\xmc_gpio.h ****  * This API is called in definition of DAVE_init by code generation and therefore should not be exp
 179:E:/xmc_1124/XMC4300_Relax_EtherCat_APP_Slave_SSC/Libraries/XMCLib/inc\xmc_gpio.h ****  * for the normal operation. Use other APIs only after DAVE_init is called successfully (returns DA
 180:E:/xmc_1124/XMC4300_Relax_EtherCat_APP_Slave_SSC/Libraries/XMCLib/inc\xmc_gpio.h ****  *
 181:E:/xmc_1124/XMC4300_Relax_EtherCat_APP_Slave_SSC/Libraries/XMCLib/inc\xmc_gpio.h ****  *
 182:E:/xmc_1124/XMC4300_Relax_EtherCat_APP_Slave_SSC/Libraries/XMCLib/inc\xmc_gpio.h ****  */
 183:E:/xmc_1124/XMC4300_Relax_EtherCat_APP_Slave_SSC/Libraries/XMCLib/inc\xmc_gpio.h **** 
 184:E:/xmc_1124/XMC4300_Relax_EtherCat_APP_Slave_SSC/Libraries/XMCLib/inc\xmc_gpio.h ****  
 185:E:/xmc_1124/XMC4300_Relax_EtherCat_APP_Slave_SSC/Libraries/XMCLib/inc\xmc_gpio.h **** void XMC_GPIO_Init(XMC_GPIO_PORT_t *const port, const uint8_t pin, const XMC_GPIO_CONFIG_t *const c
 186:E:/xmc_1124/XMC4300_Relax_EtherCat_APP_Slave_SSC/Libraries/XMCLib/inc\xmc_gpio.h ****  
 187:E:/xmc_1124/XMC4300_Relax_EtherCat_APP_Slave_SSC/Libraries/XMCLib/inc\xmc_gpio.h **** /**
 188:E:/xmc_1124/XMC4300_Relax_EtherCat_APP_Slave_SSC/Libraries/XMCLib/inc\xmc_gpio.h ****  *
 189:E:/xmc_1124/XMC4300_Relax_EtherCat_APP_Slave_SSC/Libraries/XMCLib/inc\xmc_gpio.h ****  * @param  port	Constant pointer pointing to GPIO port, to access hardware register Pn_IOCR.
 190:E:/xmc_1124/XMC4300_Relax_EtherCat_APP_Slave_SSC/Libraries/XMCLib/inc\xmc_gpio.h ****  * @param  pin	Port pin number.
 191:E:/xmc_1124/XMC4300_Relax_EtherCat_APP_Slave_SSC/Libraries/XMCLib/inc\xmc_gpio.h ****  * @param  mode input / output functionality selection. Refer @ref XMC_GPIO_MODE_t for valid values
 192:E:/xmc_1124/XMC4300_Relax_EtherCat_APP_Slave_SSC/Libraries/XMCLib/inc\xmc_gpio.h ****  *
 193:E:/xmc_1124/XMC4300_Relax_EtherCat_APP_Slave_SSC/Libraries/XMCLib/inc\xmc_gpio.h ****  * @return None
 194:E:/xmc_1124/XMC4300_Relax_EtherCat_APP_Slave_SSC/Libraries/XMCLib/inc\xmc_gpio.h ****  *
 195:E:/xmc_1124/XMC4300_Relax_EtherCat_APP_Slave_SSC/Libraries/XMCLib/inc\xmc_gpio.h ****  * \par<b>Description:</b><br>
 196:E:/xmc_1124/XMC4300_Relax_EtherCat_APP_Slave_SSC/Libraries/XMCLib/inc\xmc_gpio.h ****  * Sets digital input and output driver functionality and characteristics of a GPIO port pin. It co
 197:E:/xmc_1124/XMC4300_Relax_EtherCat_APP_Slave_SSC/Libraries/XMCLib/inc\xmc_gpio.h ****  * registers Pn_IOCR. \a mode is initially configured during initialization in XMC_GPIO_Init(). Cal
 198:E:/xmc_1124/XMC4300_Relax_EtherCat_APP_Slave_SSC/Libraries/XMCLib/inc\xmc_gpio.h ****  * the port direction functionality as needed later in the program.
 199:E:/xmc_1124/XMC4300_Relax_EtherCat_APP_Slave_SSC/Libraries/XMCLib/inc\xmc_gpio.h ****  *
 200:E:/xmc_1124/XMC4300_Relax_EtherCat_APP_Slave_SSC/Libraries/XMCLib/inc\xmc_gpio.h ****  * \par<b>Related APIs:</b><BR>
 201:E:/xmc_1124/XMC4300_Relax_EtherCat_APP_Slave_SSC/Libraries/XMCLib/inc\xmc_gpio.h ****  *  None
 202:E:/xmc_1124/XMC4300_Relax_EtherCat_APP_Slave_SSC/Libraries/XMCLib/inc\xmc_gpio.h ****  *
 203:E:/xmc_1124/XMC4300_Relax_EtherCat_APP_Slave_SSC/Libraries/XMCLib/inc\xmc_gpio.h ****  */
 204:E:/xmc_1124/XMC4300_Relax_EtherCat_APP_Slave_SSC/Libraries/XMCLib/inc\xmc_gpio.h **** 
 205:E:/xmc_1124/XMC4300_Relax_EtherCat_APP_Slave_SSC/Libraries/XMCLib/inc\xmc_gpio.h **** void XMC_GPIO_SetMode(XMC_GPIO_PORT_t *const port, const uint8_t pin, const XMC_GPIO_MODE_t mode);
 206:E:/xmc_1124/XMC4300_Relax_EtherCat_APP_Slave_SSC/Libraries/XMCLib/inc\xmc_gpio.h **** 
 207:E:/xmc_1124/XMC4300_Relax_EtherCat_APP_Slave_SSC/Libraries/XMCLib/inc\xmc_gpio.h **** 
 208:E:/xmc_1124/XMC4300_Relax_EtherCat_APP_Slave_SSC/Libraries/XMCLib/inc\xmc_gpio.h **** /**
 209:E:/xmc_1124/XMC4300_Relax_EtherCat_APP_Slave_SSC/Libraries/XMCLib/inc\xmc_gpio.h ****  *
 210:E:/xmc_1124/XMC4300_Relax_EtherCat_APP_Slave_SSC/Libraries/XMCLib/inc\xmc_gpio.h ****  * @param  port	 Constant pointer pointing to GPIO port, to access hardware register Pn_OMR.
 211:E:/xmc_1124/XMC4300_Relax_EtherCat_APP_Slave_SSC/Libraries/XMCLib/inc\xmc_gpio.h ****  * @param  pin	 Port pin number.
 212:E:/xmc_1124/XMC4300_Relax_EtherCat_APP_Slave_SSC/Libraries/XMCLib/inc\xmc_gpio.h ****  * @param  level output level selection. Refer @ref XMC_GPIO_OUTPUT_LEVEL_t for valid values.
 213:E:/xmc_1124/XMC4300_Relax_EtherCat_APP_Slave_SSC/Libraries/XMCLib/inc\xmc_gpio.h ****  *
 214:E:/xmc_1124/XMC4300_Relax_EtherCat_APP_Slave_SSC/Libraries/XMCLib/inc\xmc_gpio.h ****  * @return None
 215:E:/xmc_1124/XMC4300_Relax_EtherCat_APP_Slave_SSC/Libraries/XMCLib/inc\xmc_gpio.h ****  *
 216:E:/xmc_1124/XMC4300_Relax_EtherCat_APP_Slave_SSC/Libraries/XMCLib/inc\xmc_gpio.h ****  * \par<b>Description:</b><br>
 217:E:/xmc_1124/XMC4300_Relax_EtherCat_APP_Slave_SSC/Libraries/XMCLib/inc\xmc_gpio.h ****  * Set port pin output level to high or low.It configures hardware registers Pn_OMR.\a level is ini
 218:E:/xmc_1124/XMC4300_Relax_EtherCat_APP_Slave_SSC/Libraries/XMCLib/inc\xmc_gpio.h ****  * configured during initialization in XMC_GPIO_Init(). Call this API to alter output level as need
 219:E:/xmc_1124/XMC4300_Relax_EtherCat_APP_Slave_SSC/Libraries/XMCLib/inc\xmc_gpio.h ****  *
 220:E:/xmc_1124/XMC4300_Relax_EtherCat_APP_Slave_SSC/Libraries/XMCLib/inc\xmc_gpio.h ****  * \par<b>Related APIs:</b><BR>
 221:E:/xmc_1124/XMC4300_Relax_EtherCat_APP_Slave_SSC/Libraries/XMCLib/inc\xmc_gpio.h ****  *  XMC_GPIO_SetOutputHigh(), XMC_GPIO_SetOutputLow().
 222:E:/xmc_1124/XMC4300_Relax_EtherCat_APP_Slave_SSC/Libraries/XMCLib/inc\xmc_gpio.h ****  *
 223:E:/xmc_1124/XMC4300_Relax_EtherCat_APP_Slave_SSC/Libraries/XMCLib/inc\xmc_gpio.h ****  * \par<b>Note:</b><br>
 224:E:/xmc_1124/XMC4300_Relax_EtherCat_APP_Slave_SSC/Libraries/XMCLib/inc\xmc_gpio.h ****  * Prior to this api, user has to configure port pin to output mode using XMC_GPIO_SetMode().
 225:E:/xmc_1124/XMC4300_Relax_EtherCat_APP_Slave_SSC/Libraries/XMCLib/inc\xmc_gpio.h ****  *
 226:E:/xmc_1124/XMC4300_Relax_EtherCat_APP_Slave_SSC/Libraries/XMCLib/inc\xmc_gpio.h ****  */
 227:E:/xmc_1124/XMC4300_Relax_EtherCat_APP_Slave_SSC/Libraries/XMCLib/inc\xmc_gpio.h **** 
 228:E:/xmc_1124/XMC4300_Relax_EtherCat_APP_Slave_SSC/Libraries/XMCLib/inc\xmc_gpio.h **** 
 229:E:/xmc_1124/XMC4300_Relax_EtherCat_APP_Slave_SSC/Libraries/XMCLib/inc\xmc_gpio.h **** __STATIC_INLINE void XMC_GPIO_SetOutputLevel(XMC_GPIO_PORT_t *const port, const uint8_t pin, const 
 230:E:/xmc_1124/XMC4300_Relax_EtherCat_APP_Slave_SSC/Libraries/XMCLib/inc\xmc_gpio.h **** {
 231:E:/xmc_1124/XMC4300_Relax_EtherCat_APP_Slave_SSC/Libraries/XMCLib/inc\xmc_gpio.h ****   XMC_ASSERT("XMC_GPIO_SetOutputLevel: Invalid port", XMC_GPIO_CHECK_OUTPUT_PORT(port));
 232:E:/xmc_1124/XMC4300_Relax_EtherCat_APP_Slave_SSC/Libraries/XMCLib/inc\xmc_gpio.h ****   XMC_ASSERT("XMC_GPIO_SetOutputLevel: Invalid output level", XMC_GPIO_CHECK_OUTPUT_LEVEL(level));
 233:E:/xmc_1124/XMC4300_Relax_EtherCat_APP_Slave_SSC/Libraries/XMCLib/inc\xmc_gpio.h ****   
 234:E:/xmc_1124/XMC4300_Relax_EtherCat_APP_Slave_SSC/Libraries/XMCLib/inc\xmc_gpio.h ****   port->OMR = (uint32_t)level << pin;
 235:E:/xmc_1124/XMC4300_Relax_EtherCat_APP_Slave_SSC/Libraries/XMCLib/inc\xmc_gpio.h **** }
 236:E:/xmc_1124/XMC4300_Relax_EtherCat_APP_Slave_SSC/Libraries/XMCLib/inc\xmc_gpio.h **** 
 237:E:/xmc_1124/XMC4300_Relax_EtherCat_APP_Slave_SSC/Libraries/XMCLib/inc\xmc_gpio.h **** 
 238:E:/xmc_1124/XMC4300_Relax_EtherCat_APP_Slave_SSC/Libraries/XMCLib/inc\xmc_gpio.h **** /**
 239:E:/xmc_1124/XMC4300_Relax_EtherCat_APP_Slave_SSC/Libraries/XMCLib/inc\xmc_gpio.h ****  * @param  port constant pointer pointing to GPIO port, to access hardware register Pn_OMR.
 240:E:/xmc_1124/XMC4300_Relax_EtherCat_APP_Slave_SSC/Libraries/XMCLib/inc\xmc_gpio.h ****  * @param  pin	Port pin number.
 241:E:/xmc_1124/XMC4300_Relax_EtherCat_APP_Slave_SSC/Libraries/XMCLib/inc\xmc_gpio.h ****  *
 242:E:/xmc_1124/XMC4300_Relax_EtherCat_APP_Slave_SSC/Libraries/XMCLib/inc\xmc_gpio.h ****  * @return None
 243:E:/xmc_1124/XMC4300_Relax_EtherCat_APP_Slave_SSC/Libraries/XMCLib/inc\xmc_gpio.h ****  *
 244:E:/xmc_1124/XMC4300_Relax_EtherCat_APP_Slave_SSC/Libraries/XMCLib/inc\xmc_gpio.h ****  * \par<b>Description:</b><br>
 245:E:/xmc_1124/XMC4300_Relax_EtherCat_APP_Slave_SSC/Libraries/XMCLib/inc\xmc_gpio.h ****  *  Sets port pin output to high. It configures hardware registers Pn_OMR.
 246:E:/xmc_1124/XMC4300_Relax_EtherCat_APP_Slave_SSC/Libraries/XMCLib/inc\xmc_gpio.h ****  *
 247:E:/xmc_1124/XMC4300_Relax_EtherCat_APP_Slave_SSC/Libraries/XMCLib/inc\xmc_gpio.h ****  *  \par<b>Related APIs:</b><BR>
 248:E:/xmc_1124/XMC4300_Relax_EtherCat_APP_Slave_SSC/Libraries/XMCLib/inc\xmc_gpio.h ****  *  XMC_GPIO_SetOutputLow()
 249:E:/xmc_1124/XMC4300_Relax_EtherCat_APP_Slave_SSC/Libraries/XMCLib/inc\xmc_gpio.h ****  *
 250:E:/xmc_1124/XMC4300_Relax_EtherCat_APP_Slave_SSC/Libraries/XMCLib/inc\xmc_gpio.h ****  * \par<b>Note:</b><br>
 251:E:/xmc_1124/XMC4300_Relax_EtherCat_APP_Slave_SSC/Libraries/XMCLib/inc\xmc_gpio.h ****  * Prior to this api, user has to configure port pin to output mode using XMC_GPIO_SetMode().\n
 252:E:/xmc_1124/XMC4300_Relax_EtherCat_APP_Slave_SSC/Libraries/XMCLib/inc\xmc_gpio.h ****  * Register Pn_OMR is virtual and does not contain any flip-flop. A read action delivers the value 
 253:E:/xmc_1124/XMC4300_Relax_EtherCat_APP_Slave_SSC/Libraries/XMCLib/inc\xmc_gpio.h ****  *
 254:E:/xmc_1124/XMC4300_Relax_EtherCat_APP_Slave_SSC/Libraries/XMCLib/inc\xmc_gpio.h ****  */
 255:E:/xmc_1124/XMC4300_Relax_EtherCat_APP_Slave_SSC/Libraries/XMCLib/inc\xmc_gpio.h **** 
 256:E:/xmc_1124/XMC4300_Relax_EtherCat_APP_Slave_SSC/Libraries/XMCLib/inc\xmc_gpio.h **** __STATIC_INLINE void XMC_GPIO_SetOutputHigh(XMC_GPIO_PORT_t *const port, const uint8_t pin)
 257:E:/xmc_1124/XMC4300_Relax_EtherCat_APP_Slave_SSC/Libraries/XMCLib/inc\xmc_gpio.h **** {
  27              	 .loc 1 257 0
  28              	 .cfi_startproc
  29              	 
  30              	 
  31              	 
  32 0000 80B4     	 push {r7}
  33              	.LCFI0:
  34              	 .cfi_def_cfa_offset 4
  35              	 .cfi_offset 7,-4
  36 0002 83B0     	 sub sp,sp,#12
  37              	.LCFI1:
  38              	 .cfi_def_cfa_offset 16
  39 0004 00AF     	 add r7,sp,#0
  40              	.LCFI2:
  41              	 .cfi_def_cfa_register 7
  42 0006 7860     	 str r0,[r7,#4]
  43 0008 0B46     	 mov r3,r1
  44 000a FB70     	 strb r3,[r7,#3]
 258:E:/xmc_1124/XMC4300_Relax_EtherCat_APP_Slave_SSC/Libraries/XMCLib/inc\xmc_gpio.h ****   XMC_ASSERT("XMC_GPIO_SetOutputHigh: Invalid port", XMC_GPIO_CHECK_OUTPUT_PORT(port));
 259:E:/xmc_1124/XMC4300_Relax_EtherCat_APP_Slave_SSC/Libraries/XMCLib/inc\xmc_gpio.h **** 
 260:E:/xmc_1124/XMC4300_Relax_EtherCat_APP_Slave_SSC/Libraries/XMCLib/inc\xmc_gpio.h ****   port->OMR = (uint32_t)0x1U << pin;
  45              	 .loc 1 260 0
  46 000c FB78     	 ldrb r3,[r7,#3]
  47 000e 0122     	 movs r2,#1
  48 0010 9A40     	 lsls r2,r2,r3
  49 0012 7B68     	 ldr r3,[r7,#4]
  50 0014 5A60     	 str r2,[r3,#4]
 261:E:/xmc_1124/XMC4300_Relax_EtherCat_APP_Slave_SSC/Libraries/XMCLib/inc\xmc_gpio.h **** }
  51              	 .loc 1 261 0
  52 0016 0C37     	 adds r7,r7,#12
  53              	.LCFI3:
  54              	 .cfi_def_cfa_offset 4
  55 0018 BD46     	 mov sp,r7
  56              	.LCFI4:
  57              	 .cfi_def_cfa_register 13
  58              	 
  59 001a 5DF8047B 	 ldr r7,[sp],#4
  60              	.LCFI5:
  61              	 .cfi_restore 7
  62              	 .cfi_def_cfa_offset 0
  63 001e 7047     	 bx lr
  64              	 .cfi_endproc
  65              	.LFE176:
  67              	 .section .text.XMC_GPIO_EnableDigitalInput,"ax",%progbits
  68              	 .align 2
  69              	 .thumb
  70              	 .thumb_func
  72              	XMC_GPIO_EnableDigitalInput:
  73              	.LFB182:
 262:E:/xmc_1124/XMC4300_Relax_EtherCat_APP_Slave_SSC/Libraries/XMCLib/inc\xmc_gpio.h **** 
 263:E:/xmc_1124/XMC4300_Relax_EtherCat_APP_Slave_SSC/Libraries/XMCLib/inc\xmc_gpio.h **** /**
 264:E:/xmc_1124/XMC4300_Relax_EtherCat_APP_Slave_SSC/Libraries/XMCLib/inc\xmc_gpio.h ****  *
 265:E:/xmc_1124/XMC4300_Relax_EtherCat_APP_Slave_SSC/Libraries/XMCLib/inc\xmc_gpio.h ****  * @param  port	constant pointer pointing to GPIO port, to access hardware register Pn_OMR.
 266:E:/xmc_1124/XMC4300_Relax_EtherCat_APP_Slave_SSC/Libraries/XMCLib/inc\xmc_gpio.h ****  * @param  pin	port pin number.
 267:E:/xmc_1124/XMC4300_Relax_EtherCat_APP_Slave_SSC/Libraries/XMCLib/inc\xmc_gpio.h ****  *
 268:E:/xmc_1124/XMC4300_Relax_EtherCat_APP_Slave_SSC/Libraries/XMCLib/inc\xmc_gpio.h ****  * @return  None
 269:E:/xmc_1124/XMC4300_Relax_EtherCat_APP_Slave_SSC/Libraries/XMCLib/inc\xmc_gpio.h ****  *
 270:E:/xmc_1124/XMC4300_Relax_EtherCat_APP_Slave_SSC/Libraries/XMCLib/inc\xmc_gpio.h ****  *\par<b>Description:</b><br>
 271:E:/xmc_1124/XMC4300_Relax_EtherCat_APP_Slave_SSC/Libraries/XMCLib/inc\xmc_gpio.h ****  * Sets port pin output to low. It configures hardware registers Pn_OMR.\n
 272:E:/xmc_1124/XMC4300_Relax_EtherCat_APP_Slave_SSC/Libraries/XMCLib/inc\xmc_gpio.h ****  *
 273:E:/xmc_1124/XMC4300_Relax_EtherCat_APP_Slave_SSC/Libraries/XMCLib/inc\xmc_gpio.h ****  * \par<b>Related APIs:</b><BR>>
 274:E:/xmc_1124/XMC4300_Relax_EtherCat_APP_Slave_SSC/Libraries/XMCLib/inc\xmc_gpio.h ****  * XMC_GPIO_SetOutputHigh()
 275:E:/xmc_1124/XMC4300_Relax_EtherCat_APP_Slave_SSC/Libraries/XMCLib/inc\xmc_gpio.h ****  *
 276:E:/xmc_1124/XMC4300_Relax_EtherCat_APP_Slave_SSC/Libraries/XMCLib/inc\xmc_gpio.h ****  *\par<b>Note:</b><br>
 277:E:/xmc_1124/XMC4300_Relax_EtherCat_APP_Slave_SSC/Libraries/XMCLib/inc\xmc_gpio.h ****  * Prior to this api, user has to configure port pin to output mode using XMC_GPIO_SetMode().
 278:E:/xmc_1124/XMC4300_Relax_EtherCat_APP_Slave_SSC/Libraries/XMCLib/inc\xmc_gpio.h ****  * Register Pn_OMR is virtual and does not contain any flip-flop. A read action delivers the value 
 279:E:/xmc_1124/XMC4300_Relax_EtherCat_APP_Slave_SSC/Libraries/XMCLib/inc\xmc_gpio.h ****  *
 280:E:/xmc_1124/XMC4300_Relax_EtherCat_APP_Slave_SSC/Libraries/XMCLib/inc\xmc_gpio.h ****  */
 281:E:/xmc_1124/XMC4300_Relax_EtherCat_APP_Slave_SSC/Libraries/XMCLib/inc\xmc_gpio.h **** 
 282:E:/xmc_1124/XMC4300_Relax_EtherCat_APP_Slave_SSC/Libraries/XMCLib/inc\xmc_gpio.h **** __STATIC_INLINE void XMC_GPIO_SetOutputLow(XMC_GPIO_PORT_t *const port, const uint8_t pin)
 283:E:/xmc_1124/XMC4300_Relax_EtherCat_APP_Slave_SSC/Libraries/XMCLib/inc\xmc_gpio.h **** {
 284:E:/xmc_1124/XMC4300_Relax_EtherCat_APP_Slave_SSC/Libraries/XMCLib/inc\xmc_gpio.h ****   XMC_ASSERT("XMC_GPIO_SetOutputLow: Invalid port", XMC_GPIO_CHECK_OUTPUT_PORT(port));
 285:E:/xmc_1124/XMC4300_Relax_EtherCat_APP_Slave_SSC/Libraries/XMCLib/inc\xmc_gpio.h **** 
 286:E:/xmc_1124/XMC4300_Relax_EtherCat_APP_Slave_SSC/Libraries/XMCLib/inc\xmc_gpio.h ****   port->OMR = 0x10000U << pin;
 287:E:/xmc_1124/XMC4300_Relax_EtherCat_APP_Slave_SSC/Libraries/XMCLib/inc\xmc_gpio.h **** }
 288:E:/xmc_1124/XMC4300_Relax_EtherCat_APP_Slave_SSC/Libraries/XMCLib/inc\xmc_gpio.h **** 
 289:E:/xmc_1124/XMC4300_Relax_EtherCat_APP_Slave_SSC/Libraries/XMCLib/inc\xmc_gpio.h **** /**
 290:E:/xmc_1124/XMC4300_Relax_EtherCat_APP_Slave_SSC/Libraries/XMCLib/inc\xmc_gpio.h ****  *
 291:E:/xmc_1124/XMC4300_Relax_EtherCat_APP_Slave_SSC/Libraries/XMCLib/inc\xmc_gpio.h ****  * @param port constant pointer pointing to GPIO port, to access hardware register Pn_OMR.
 292:E:/xmc_1124/XMC4300_Relax_EtherCat_APP_Slave_SSC/Libraries/XMCLib/inc\xmc_gpio.h ****  * @param pin  port pin number.
 293:E:/xmc_1124/XMC4300_Relax_EtherCat_APP_Slave_SSC/Libraries/XMCLib/inc\xmc_gpio.h ****  *
 294:E:/xmc_1124/XMC4300_Relax_EtherCat_APP_Slave_SSC/Libraries/XMCLib/inc\xmc_gpio.h ****  * @return None
 295:E:/xmc_1124/XMC4300_Relax_EtherCat_APP_Slave_SSC/Libraries/XMCLib/inc\xmc_gpio.h ****  *
 296:E:/xmc_1124/XMC4300_Relax_EtherCat_APP_Slave_SSC/Libraries/XMCLib/inc\xmc_gpio.h ****  * \par<b>Description:</b><br>
 297:E:/xmc_1124/XMC4300_Relax_EtherCat_APP_Slave_SSC/Libraries/XMCLib/inc\xmc_gpio.h ****  * Configures port pin output to Toggle. It configures hardware registers Pn_OMR.
 298:E:/xmc_1124/XMC4300_Relax_EtherCat_APP_Slave_SSC/Libraries/XMCLib/inc\xmc_gpio.h ****  *
 299:E:/xmc_1124/XMC4300_Relax_EtherCat_APP_Slave_SSC/Libraries/XMCLib/inc\xmc_gpio.h ****  * \par<b>Related APIs:</b><BR>
 300:E:/xmc_1124/XMC4300_Relax_EtherCat_APP_Slave_SSC/Libraries/XMCLib/inc\xmc_gpio.h ****  * XMC_GPIO_SetOutputHigh(), XMC_GPIO_SetOutputLow().
 301:E:/xmc_1124/XMC4300_Relax_EtherCat_APP_Slave_SSC/Libraries/XMCLib/inc\xmc_gpio.h ****  *
 302:E:/xmc_1124/XMC4300_Relax_EtherCat_APP_Slave_SSC/Libraries/XMCLib/inc\xmc_gpio.h ****  * \par<b>Note:</b><br>
 303:E:/xmc_1124/XMC4300_Relax_EtherCat_APP_Slave_SSC/Libraries/XMCLib/inc\xmc_gpio.h ****  * Prior to this api, user has to configure port pin to output mode using XMC_GPIO_SetMode(). Regis
 304:E:/xmc_1124/XMC4300_Relax_EtherCat_APP_Slave_SSC/Libraries/XMCLib/inc\xmc_gpio.h ****  * and does not contain any flip-flop. A read action delivers the value of 0.
 305:E:/xmc_1124/XMC4300_Relax_EtherCat_APP_Slave_SSC/Libraries/XMCLib/inc\xmc_gpio.h ****  *
 306:E:/xmc_1124/XMC4300_Relax_EtherCat_APP_Slave_SSC/Libraries/XMCLib/inc\xmc_gpio.h ****  */
 307:E:/xmc_1124/XMC4300_Relax_EtherCat_APP_Slave_SSC/Libraries/XMCLib/inc\xmc_gpio.h **** 
 308:E:/xmc_1124/XMC4300_Relax_EtherCat_APP_Slave_SSC/Libraries/XMCLib/inc\xmc_gpio.h **** __STATIC_INLINE void XMC_GPIO_ToggleOutput(XMC_GPIO_PORT_t *const port, const uint8_t pin)
 309:E:/xmc_1124/XMC4300_Relax_EtherCat_APP_Slave_SSC/Libraries/XMCLib/inc\xmc_gpio.h **** {
 310:E:/xmc_1124/XMC4300_Relax_EtherCat_APP_Slave_SSC/Libraries/XMCLib/inc\xmc_gpio.h ****   XMC_ASSERT("XMC_GPIO_ToggleOutput: Invalid port", XMC_GPIO_CHECK_OUTPUT_PORT(port));
 311:E:/xmc_1124/XMC4300_Relax_EtherCat_APP_Slave_SSC/Libraries/XMCLib/inc\xmc_gpio.h **** 
 312:E:/xmc_1124/XMC4300_Relax_EtherCat_APP_Slave_SSC/Libraries/XMCLib/inc\xmc_gpio.h ****   port->OMR = 0x10001U << pin;
 313:E:/xmc_1124/XMC4300_Relax_EtherCat_APP_Slave_SSC/Libraries/XMCLib/inc\xmc_gpio.h **** }
 314:E:/xmc_1124/XMC4300_Relax_EtherCat_APP_Slave_SSC/Libraries/XMCLib/inc\xmc_gpio.h **** 
 315:E:/xmc_1124/XMC4300_Relax_EtherCat_APP_Slave_SSC/Libraries/XMCLib/inc\xmc_gpio.h **** /**
 316:E:/xmc_1124/XMC4300_Relax_EtherCat_APP_Slave_SSC/Libraries/XMCLib/inc\xmc_gpio.h ****  *
 317:E:/xmc_1124/XMC4300_Relax_EtherCat_APP_Slave_SSC/Libraries/XMCLib/inc\xmc_gpio.h ****  * @param port constant pointer pointing to GPIO port, to access hardware register Pn_IN.
 318:E:/xmc_1124/XMC4300_Relax_EtherCat_APP_Slave_SSC/Libraries/XMCLib/inc\xmc_gpio.h ****  * @param pin  Port pin number.
 319:E:/xmc_1124/XMC4300_Relax_EtherCat_APP_Slave_SSC/Libraries/XMCLib/inc\xmc_gpio.h ****  *
 320:E:/xmc_1124/XMC4300_Relax_EtherCat_APP_Slave_SSC/Libraries/XMCLib/inc\xmc_gpio.h ****  * @return uint32_t pin logic level status.
 321:E:/xmc_1124/XMC4300_Relax_EtherCat_APP_Slave_SSC/Libraries/XMCLib/inc\xmc_gpio.h ****  *
 322:E:/xmc_1124/XMC4300_Relax_EtherCat_APP_Slave_SSC/Libraries/XMCLib/inc\xmc_gpio.h ****  *\par<b>Description:</b><br>
 323:E:/xmc_1124/XMC4300_Relax_EtherCat_APP_Slave_SSC/Libraries/XMCLib/inc\xmc_gpio.h ****  * Reads the Pn_IN register and returns the current logical value at the GPIO pin.
 324:E:/xmc_1124/XMC4300_Relax_EtherCat_APP_Slave_SSC/Libraries/XMCLib/inc\xmc_gpio.h ****  *
 325:E:/xmc_1124/XMC4300_Relax_EtherCat_APP_Slave_SSC/Libraries/XMCLib/inc\xmc_gpio.h ****  * \par<b>Related APIs:</b><BR>
 326:E:/xmc_1124/XMC4300_Relax_EtherCat_APP_Slave_SSC/Libraries/XMCLib/inc\xmc_gpio.h ****  * None
 327:E:/xmc_1124/XMC4300_Relax_EtherCat_APP_Slave_SSC/Libraries/XMCLib/inc\xmc_gpio.h ****  *
 328:E:/xmc_1124/XMC4300_Relax_EtherCat_APP_Slave_SSC/Libraries/XMCLib/inc\xmc_gpio.h ****  * \par<b>Note:</b><br>
 329:E:/xmc_1124/XMC4300_Relax_EtherCat_APP_Slave_SSC/Libraries/XMCLib/inc\xmc_gpio.h ****  * Prior to this api, user has to configure port pin to input mode using XMC_GPIO_SetMode().
 330:E:/xmc_1124/XMC4300_Relax_EtherCat_APP_Slave_SSC/Libraries/XMCLib/inc\xmc_gpio.h ****  *
 331:E:/xmc_1124/XMC4300_Relax_EtherCat_APP_Slave_SSC/Libraries/XMCLib/inc\xmc_gpio.h ****  */
 332:E:/xmc_1124/XMC4300_Relax_EtherCat_APP_Slave_SSC/Libraries/XMCLib/inc\xmc_gpio.h **** 
 333:E:/xmc_1124/XMC4300_Relax_EtherCat_APP_Slave_SSC/Libraries/XMCLib/inc\xmc_gpio.h **** __STATIC_INLINE uint32_t XMC_GPIO_GetInput(XMC_GPIO_PORT_t *const port, const uint8_t pin)
 334:E:/xmc_1124/XMC4300_Relax_EtherCat_APP_Slave_SSC/Libraries/XMCLib/inc\xmc_gpio.h **** {
 335:E:/xmc_1124/XMC4300_Relax_EtherCat_APP_Slave_SSC/Libraries/XMCLib/inc\xmc_gpio.h ****   XMC_ASSERT("XMC_GPIO_GetInput: Invalid port", XMC_GPIO_CHECK_PORT(port));
 336:E:/xmc_1124/XMC4300_Relax_EtherCat_APP_Slave_SSC/Libraries/XMCLib/inc\xmc_gpio.h **** 
 337:E:/xmc_1124/XMC4300_Relax_EtherCat_APP_Slave_SSC/Libraries/XMCLib/inc\xmc_gpio.h ****   return (((port->IN) >> pin) & 0x1U);
 338:E:/xmc_1124/XMC4300_Relax_EtherCat_APP_Slave_SSC/Libraries/XMCLib/inc\xmc_gpio.h **** }
 339:E:/xmc_1124/XMC4300_Relax_EtherCat_APP_Slave_SSC/Libraries/XMCLib/inc\xmc_gpio.h **** 
 340:E:/xmc_1124/XMC4300_Relax_EtherCat_APP_Slave_SSC/Libraries/XMCLib/inc\xmc_gpio.h **** /**
 341:E:/xmc_1124/XMC4300_Relax_EtherCat_APP_Slave_SSC/Libraries/XMCLib/inc\xmc_gpio.h ****  * @param port constant pointer pointing to GPIO port, to access hardware register Pn_PPS.
 342:E:/xmc_1124/XMC4300_Relax_EtherCat_APP_Slave_SSC/Libraries/XMCLib/inc\xmc_gpio.h ****  * @param pin  port pin number.
 343:E:/xmc_1124/XMC4300_Relax_EtherCat_APP_Slave_SSC/Libraries/XMCLib/inc\xmc_gpio.h ****  *
 344:E:/xmc_1124/XMC4300_Relax_EtherCat_APP_Slave_SSC/Libraries/XMCLib/inc\xmc_gpio.h ****  * @return None
 345:E:/xmc_1124/XMC4300_Relax_EtherCat_APP_Slave_SSC/Libraries/XMCLib/inc\xmc_gpio.h ****  *
 346:E:/xmc_1124/XMC4300_Relax_EtherCat_APP_Slave_SSC/Libraries/XMCLib/inc\xmc_gpio.h ****  * \par<b>Description:</b><br>
 347:E:/xmc_1124/XMC4300_Relax_EtherCat_APP_Slave_SSC/Libraries/XMCLib/inc\xmc_gpio.h ****  * Enables pin power save mode and configures Pn_PPS register.This configuration is useful when the
 348:E:/xmc_1124/XMC4300_Relax_EtherCat_APP_Slave_SSC/Libraries/XMCLib/inc\xmc_gpio.h ****  * Deep Sleep mode.Port pin enabled with power save mode option are set to a defined state and the 
 349:E:/xmc_1124/XMC4300_Relax_EtherCat_APP_Slave_SSC/Libraries/XMCLib/inc\xmc_gpio.h ****  * as well as the output driver stage are switched off. By default port pin does not react to power
 350:E:/xmc_1124/XMC4300_Relax_EtherCat_APP_Slave_SSC/Libraries/XMCLib/inc\xmc_gpio.h ****  *
 351:E:/xmc_1124/XMC4300_Relax_EtherCat_APP_Slave_SSC/Libraries/XMCLib/inc\xmc_gpio.h ****  * \par<b>Related APIs:</b><BR>
 352:E:/xmc_1124/XMC4300_Relax_EtherCat_APP_Slave_SSC/Libraries/XMCLib/inc\xmc_gpio.h ****  * XMC_GPIO_DisablePowerSaveMode()
 353:E:/xmc_1124/XMC4300_Relax_EtherCat_APP_Slave_SSC/Libraries/XMCLib/inc\xmc_gpio.h ****  *
 354:E:/xmc_1124/XMC4300_Relax_EtherCat_APP_Slave_SSC/Libraries/XMCLib/inc\xmc_gpio.h ****  * <b>Note:</b><br>
 355:E:/xmc_1124/XMC4300_Relax_EtherCat_APP_Slave_SSC/Libraries/XMCLib/inc\xmc_gpio.h ****  * Do not enable the Pin Power Save function for pins configured for Hardware Control (Pn_HWSEL.HWx
 356:E:/xmc_1124/XMC4300_Relax_EtherCat_APP_Slave_SSC/Libraries/XMCLib/inc\xmc_gpio.h ****  * may result in an undefined behavior of the pin when the device enters the Deep Sleep state.
 357:E:/xmc_1124/XMC4300_Relax_EtherCat_APP_Slave_SSC/Libraries/XMCLib/inc\xmc_gpio.h ****  *
 358:E:/xmc_1124/XMC4300_Relax_EtherCat_APP_Slave_SSC/Libraries/XMCLib/inc\xmc_gpio.h ****  */
 359:E:/xmc_1124/XMC4300_Relax_EtherCat_APP_Slave_SSC/Libraries/XMCLib/inc\xmc_gpio.h **** 
 360:E:/xmc_1124/XMC4300_Relax_EtherCat_APP_Slave_SSC/Libraries/XMCLib/inc\xmc_gpio.h **** 
 361:E:/xmc_1124/XMC4300_Relax_EtherCat_APP_Slave_SSC/Libraries/XMCLib/inc\xmc_gpio.h **** __STATIC_INLINE void XMC_GPIO_EnablePowerSaveMode(XMC_GPIO_PORT_t *const port, const uint8_t pin)
 362:E:/xmc_1124/XMC4300_Relax_EtherCat_APP_Slave_SSC/Libraries/XMCLib/inc\xmc_gpio.h **** {
 363:E:/xmc_1124/XMC4300_Relax_EtherCat_APP_Slave_SSC/Libraries/XMCLib/inc\xmc_gpio.h ****   XMC_ASSERT("XMC_GPIO_EnablePowerSaveMode: Invalid port", XMC_GPIO_CHECK_PORT(port));
 364:E:/xmc_1124/XMC4300_Relax_EtherCat_APP_Slave_SSC/Libraries/XMCLib/inc\xmc_gpio.h **** 
 365:E:/xmc_1124/XMC4300_Relax_EtherCat_APP_Slave_SSC/Libraries/XMCLib/inc\xmc_gpio.h ****   port->PPS |= (uint32_t)0x1U << pin;
 366:E:/xmc_1124/XMC4300_Relax_EtherCat_APP_Slave_SSC/Libraries/XMCLib/inc\xmc_gpio.h **** }
 367:E:/xmc_1124/XMC4300_Relax_EtherCat_APP_Slave_SSC/Libraries/XMCLib/inc\xmc_gpio.h **** 
 368:E:/xmc_1124/XMC4300_Relax_EtherCat_APP_Slave_SSC/Libraries/XMCLib/inc\xmc_gpio.h **** 
 369:E:/xmc_1124/XMC4300_Relax_EtherCat_APP_Slave_SSC/Libraries/XMCLib/inc\xmc_gpio.h **** /**
 370:E:/xmc_1124/XMC4300_Relax_EtherCat_APP_Slave_SSC/Libraries/XMCLib/inc\xmc_gpio.h ****  *
 371:E:/xmc_1124/XMC4300_Relax_EtherCat_APP_Slave_SSC/Libraries/XMCLib/inc\xmc_gpio.h ****  * @param port	constant pointer pointing to GPIO port, to access hardware register Pn_PPS.
 372:E:/xmc_1124/XMC4300_Relax_EtherCat_APP_Slave_SSC/Libraries/XMCLib/inc\xmc_gpio.h ****  * @param pin	port pin number.
 373:E:/xmc_1124/XMC4300_Relax_EtherCat_APP_Slave_SSC/Libraries/XMCLib/inc\xmc_gpio.h ****  *
 374:E:/xmc_1124/XMC4300_Relax_EtherCat_APP_Slave_SSC/Libraries/XMCLib/inc\xmc_gpio.h ****  * @return None
 375:E:/xmc_1124/XMC4300_Relax_EtherCat_APP_Slave_SSC/Libraries/XMCLib/inc\xmc_gpio.h ****  *
 376:E:/xmc_1124/XMC4300_Relax_EtherCat_APP_Slave_SSC/Libraries/XMCLib/inc\xmc_gpio.h ****  * \par<b>Description:</b><br>
 377:E:/xmc_1124/XMC4300_Relax_EtherCat_APP_Slave_SSC/Libraries/XMCLib/inc\xmc_gpio.h ****  * Disables pin power save mode and configures Pn_PPS register.This configuration is useful when th
 378:E:/xmc_1124/XMC4300_Relax_EtherCat_APP_Slave_SSC/Libraries/XMCLib/inc\xmc_gpio.h ****  * Deep Sleep mode. This configuration enables input Schmitt-Trigger and output driver stage(if pin
 379:E:/xmc_1124/XMC4300_Relax_EtherCat_APP_Slave_SSC/Libraries/XMCLib/inc\xmc_gpio.h ****  * save mode previously). By default port \a pin does not react to power save mode request.
 380:E:/xmc_1124/XMC4300_Relax_EtherCat_APP_Slave_SSC/Libraries/XMCLib/inc\xmc_gpio.h ****  *
 381:E:/xmc_1124/XMC4300_Relax_EtherCat_APP_Slave_SSC/Libraries/XMCLib/inc\xmc_gpio.h ****  * \par<b>Related APIs:</b><BR>
 382:E:/xmc_1124/XMC4300_Relax_EtherCat_APP_Slave_SSC/Libraries/XMCLib/inc\xmc_gpio.h ****  *  XMC_GPIO_EnablePowerSaveMode()
 383:E:/xmc_1124/XMC4300_Relax_EtherCat_APP_Slave_SSC/Libraries/XMCLib/inc\xmc_gpio.h ****  *
 384:E:/xmc_1124/XMC4300_Relax_EtherCat_APP_Slave_SSC/Libraries/XMCLib/inc\xmc_gpio.h ****  *\par<b>Note:</b><br>
 385:E:/xmc_1124/XMC4300_Relax_EtherCat_APP_Slave_SSC/Libraries/XMCLib/inc\xmc_gpio.h ****  * Do not enable the Pin Power Save function for pins configured for Hardware Control (Pn_HWSEL.HWx
 386:E:/xmc_1124/XMC4300_Relax_EtherCat_APP_Slave_SSC/Libraries/XMCLib/inc\xmc_gpio.h ****  * may result in an undefined behavior of the pin when the device enters the Deep Sleep state.
 387:E:/xmc_1124/XMC4300_Relax_EtherCat_APP_Slave_SSC/Libraries/XMCLib/inc\xmc_gpio.h ****  *
 388:E:/xmc_1124/XMC4300_Relax_EtherCat_APP_Slave_SSC/Libraries/XMCLib/inc\xmc_gpio.h ****  */
 389:E:/xmc_1124/XMC4300_Relax_EtherCat_APP_Slave_SSC/Libraries/XMCLib/inc\xmc_gpio.h **** 
 390:E:/xmc_1124/XMC4300_Relax_EtherCat_APP_Slave_SSC/Libraries/XMCLib/inc\xmc_gpio.h **** __STATIC_INLINE void XMC_GPIO_DisablePowerSaveMode(XMC_GPIO_PORT_t *const port, const uint8_t pin)
 391:E:/xmc_1124/XMC4300_Relax_EtherCat_APP_Slave_SSC/Libraries/XMCLib/inc\xmc_gpio.h **** {
 392:E:/xmc_1124/XMC4300_Relax_EtherCat_APP_Slave_SSC/Libraries/XMCLib/inc\xmc_gpio.h ****   XMC_ASSERT("XMC_GPIO_DisablePowerSaveMode: Invalid port", XMC_GPIO_CHECK_PORT(port));
 393:E:/xmc_1124/XMC4300_Relax_EtherCat_APP_Slave_SSC/Libraries/XMCLib/inc\xmc_gpio.h **** 
 394:E:/xmc_1124/XMC4300_Relax_EtherCat_APP_Slave_SSC/Libraries/XMCLib/inc\xmc_gpio.h ****   port->PPS &= ~(uint32_t)((uint32_t)0x1U << pin);
 395:E:/xmc_1124/XMC4300_Relax_EtherCat_APP_Slave_SSC/Libraries/XMCLib/inc\xmc_gpio.h **** }
 396:E:/xmc_1124/XMC4300_Relax_EtherCat_APP_Slave_SSC/Libraries/XMCLib/inc\xmc_gpio.h **** 
 397:E:/xmc_1124/XMC4300_Relax_EtherCat_APP_Slave_SSC/Libraries/XMCLib/inc\xmc_gpio.h **** 
 398:E:/xmc_1124/XMC4300_Relax_EtherCat_APP_Slave_SSC/Libraries/XMCLib/inc\xmc_gpio.h **** /**
 399:E:/xmc_1124/XMC4300_Relax_EtherCat_APP_Slave_SSC/Libraries/XMCLib/inc\xmc_gpio.h ****  * @param port	 constant pointer pointing to GPIO port, to access hardware register Pn_HWSEL.
 400:E:/xmc_1124/XMC4300_Relax_EtherCat_APP_Slave_SSC/Libraries/XMCLib/inc\xmc_gpio.h ****  * @param pin	 port pin number.
 401:E:/xmc_1124/XMC4300_Relax_EtherCat_APP_Slave_SSC/Libraries/XMCLib/inc\xmc_gpio.h ****  * @param hwctrl direct hardware control selection. Refer @ref XMC_GPIO_HWCTRL_t for valid values.
 402:E:/xmc_1124/XMC4300_Relax_EtherCat_APP_Slave_SSC/Libraries/XMCLib/inc\xmc_gpio.h ****  *
 403:E:/xmc_1124/XMC4300_Relax_EtherCat_APP_Slave_SSC/Libraries/XMCLib/inc\xmc_gpio.h ****  * @return None
 404:E:/xmc_1124/XMC4300_Relax_EtherCat_APP_Slave_SSC/Libraries/XMCLib/inc\xmc_gpio.h ****  *
 405:E:/xmc_1124/XMC4300_Relax_EtherCat_APP_Slave_SSC/Libraries/XMCLib/inc\xmc_gpio.h ****  * \par<b>Description:</b><br>
 406:E:/xmc_1124/XMC4300_Relax_EtherCat_APP_Slave_SSC/Libraries/XMCLib/inc\xmc_gpio.h ****  * Selects direct hard ware control and configures Pn_HWSEL register.This configuration is useful f
 407:E:/xmc_1124/XMC4300_Relax_EtherCat_APP_Slave_SSC/Libraries/XMCLib/inc\xmc_gpio.h ****  * overlaid with peripheral functions for which the connected peripheral needs hardware control.
 408:E:/xmc_1124/XMC4300_Relax_EtherCat_APP_Slave_SSC/Libraries/XMCLib/inc\xmc_gpio.h ****  *
 409:E:/xmc_1124/XMC4300_Relax_EtherCat_APP_Slave_SSC/Libraries/XMCLib/inc\xmc_gpio.h ****  * \par<b>Related APIs:</b><BR>
 410:E:/xmc_1124/XMC4300_Relax_EtherCat_APP_Slave_SSC/Libraries/XMCLib/inc\xmc_gpio.h ****  *  None
 411:E:/xmc_1124/XMC4300_Relax_EtherCat_APP_Slave_SSC/Libraries/XMCLib/inc\xmc_gpio.h ****  *
 412:E:/xmc_1124/XMC4300_Relax_EtherCat_APP_Slave_SSC/Libraries/XMCLib/inc\xmc_gpio.h ****  *\par<b>Note:</b><br>
 413:E:/xmc_1124/XMC4300_Relax_EtherCat_APP_Slave_SSC/Libraries/XMCLib/inc\xmc_gpio.h ****  * Do not enable the Pin Power Save function for pins configured for Hardware Control (Pn_HWSEL.HWx
 414:E:/xmc_1124/XMC4300_Relax_EtherCat_APP_Slave_SSC/Libraries/XMCLib/inc\xmc_gpio.h ****  * Doing so may result in an undefined behavior of the pin when the device enters the Deep Sleep st
 415:E:/xmc_1124/XMC4300_Relax_EtherCat_APP_Slave_SSC/Libraries/XMCLib/inc\xmc_gpio.h ****  *
 416:E:/xmc_1124/XMC4300_Relax_EtherCat_APP_Slave_SSC/Libraries/XMCLib/inc\xmc_gpio.h ****  */
 417:E:/xmc_1124/XMC4300_Relax_EtherCat_APP_Slave_SSC/Libraries/XMCLib/inc\xmc_gpio.h **** 
 418:E:/xmc_1124/XMC4300_Relax_EtherCat_APP_Slave_SSC/Libraries/XMCLib/inc\xmc_gpio.h **** void XMC_GPIO_SetHardwareControl(XMC_GPIO_PORT_t *const port, const uint8_t pin, const XMC_GPIO_HWC
 419:E:/xmc_1124/XMC4300_Relax_EtherCat_APP_Slave_SSC/Libraries/XMCLib/inc\xmc_gpio.h **** 
 420:E:/xmc_1124/XMC4300_Relax_EtherCat_APP_Slave_SSC/Libraries/XMCLib/inc\xmc_gpio.h **** 
 421:E:/xmc_1124/XMC4300_Relax_EtherCat_APP_Slave_SSC/Libraries/XMCLib/inc\xmc_gpio.h **** /**
 422:E:/xmc_1124/XMC4300_Relax_EtherCat_APP_Slave_SSC/Libraries/XMCLib/inc\xmc_gpio.h ****  * @param port	constant pointer pointing to GPIO port, to access hardware register Pn_PDISC.
 423:E:/xmc_1124/XMC4300_Relax_EtherCat_APP_Slave_SSC/Libraries/XMCLib/inc\xmc_gpio.h ****  * @param pin	port pin number.
 424:E:/xmc_1124/XMC4300_Relax_EtherCat_APP_Slave_SSC/Libraries/XMCLib/inc\xmc_gpio.h ****  *
 425:E:/xmc_1124/XMC4300_Relax_EtherCat_APP_Slave_SSC/Libraries/XMCLib/inc\xmc_gpio.h ****  * @return None
 426:E:/xmc_1124/XMC4300_Relax_EtherCat_APP_Slave_SSC/Libraries/XMCLib/inc\xmc_gpio.h ****  *
 427:E:/xmc_1124/XMC4300_Relax_EtherCat_APP_Slave_SSC/Libraries/XMCLib/inc\xmc_gpio.h ****  * \par<b>Related APIs:</b><BR>
 428:E:/xmc_1124/XMC4300_Relax_EtherCat_APP_Slave_SSC/Libraries/XMCLib/inc\xmc_gpio.h ****  *  None
 429:E:/xmc_1124/XMC4300_Relax_EtherCat_APP_Slave_SSC/Libraries/XMCLib/inc\xmc_gpio.h ****  *
 430:E:/xmc_1124/XMC4300_Relax_EtherCat_APP_Slave_SSC/Libraries/XMCLib/inc\xmc_gpio.h ****  * \par<b>Description:</b><br>
 431:E:/xmc_1124/XMC4300_Relax_EtherCat_APP_Slave_SSC/Libraries/XMCLib/inc\xmc_gpio.h ****  * Enable digital input path for analog pins and configures Pn_PDISC register.This configuration is
 432:E:/xmc_1124/XMC4300_Relax_EtherCat_APP_Slave_SSC/Libraries/XMCLib/inc\xmc_gpio.h ****  * analog port pins.
 433:E:/xmc_1124/XMC4300_Relax_EtherCat_APP_Slave_SSC/Libraries/XMCLib/inc\xmc_gpio.h ****  *
 434:E:/xmc_1124/XMC4300_Relax_EtherCat_APP_Slave_SSC/Libraries/XMCLib/inc\xmc_gpio.h ****  */
 435:E:/xmc_1124/XMC4300_Relax_EtherCat_APP_Slave_SSC/Libraries/XMCLib/inc\xmc_gpio.h **** __STATIC_INLINE void XMC_GPIO_EnableDigitalInput(XMC_GPIO_PORT_t *const port, const uint8_t pin)
 436:E:/xmc_1124/XMC4300_Relax_EtherCat_APP_Slave_SSC/Libraries/XMCLib/inc\xmc_gpio.h **** {
  74              	 .loc 1 436 0
  75              	 .cfi_startproc
  76              	 
  77              	 
  78              	 
  79 0000 80B4     	 push {r7}
  80              	.LCFI6:
  81              	 .cfi_def_cfa_offset 4
  82              	 .cfi_offset 7,-4
  83 0002 83B0     	 sub sp,sp,#12
  84              	.LCFI7:
  85              	 .cfi_def_cfa_offset 16
  86 0004 00AF     	 add r7,sp,#0
  87              	.LCFI8:
  88              	 .cfi_def_cfa_register 7
  89 0006 7860     	 str r0,[r7,#4]
  90 0008 0B46     	 mov r3,r1
  91 000a FB70     	 strb r3,[r7,#3]
 437:E:/xmc_1124/XMC4300_Relax_EtherCat_APP_Slave_SSC/Libraries/XMCLib/inc\xmc_gpio.h ****   XMC_ASSERT("XMC_GPIO_EnableDigitalInput: Invalid analog port", XMC_GPIO_CHECK_ANALOG_PORT(port));
 438:E:/xmc_1124/XMC4300_Relax_EtherCat_APP_Slave_SSC/Libraries/XMCLib/inc\xmc_gpio.h ****   
 439:E:/xmc_1124/XMC4300_Relax_EtherCat_APP_Slave_SSC/Libraries/XMCLib/inc\xmc_gpio.h ****   port->PDISC &= ~(uint32_t)((uint32_t)0x1U << pin);
  92              	 .loc 1 439 0
  93 000c 7B68     	 ldr r3,[r7,#4]
  94 000e 1A6E     	 ldr r2,[r3,#96]
  95 0010 FB78     	 ldrb r3,[r7,#3]
  96 0012 0121     	 movs r1,#1
  97 0014 01FA03F3 	 lsl r3,r1,r3
  98 0018 DB43     	 mvns r3,r3
  99 001a 1A40     	 ands r2,r2,r3
 100 001c 7B68     	 ldr r3,[r7,#4]
 101 001e 1A66     	 str r2,[r3,#96]
 440:E:/xmc_1124/XMC4300_Relax_EtherCat_APP_Slave_SSC/Libraries/XMCLib/inc\xmc_gpio.h **** }
 102              	 .loc 1 440 0
 103 0020 0C37     	 adds r7,r7,#12
 104              	.LCFI9:
 105              	 .cfi_def_cfa_offset 4
 106 0022 BD46     	 mov sp,r7
 107              	.LCFI10:
 108              	 .cfi_def_cfa_register 13
 109              	 
 110 0024 5DF8047B 	 ldr r7,[sp],#4
 111              	.LCFI11:
 112              	 .cfi_restore 7
 113              	 .cfi_def_cfa_offset 0
 114 0028 7047     	 bx lr
 115              	 .cfi_endproc
 116              	.LFE182:
 118 002a 00BF     	 .section .text.Init_ECAT_Adapt_LED,"ax",%progbits
 119              	 .align 2
 120              	 .global Init_ECAT_Adapt_LED
 121              	 .thumb
 122              	 .thumb_func
 124              	Init_ECAT_Adapt_LED:
 125              	.LFB270:
 126              	 .file 2 "../main.c"
   1:../main.c     **** /*
   2:../main.c     ****  * Copyright (C) 2015 Infineon Technologies AG. All rights reserved.
   3:../main.c     ****  *
   4:../main.c     ****  * Infineon Technologies AG (Infineon) is supplying this software for use with
   5:../main.c     ****  * Infineon's microcontrollers.
   6:../main.c     ****  * This file can be freely distributed within development tools that are
   7:../main.c     ****  * supporting such microcontrollers.
   8:../main.c     ****  *
   9:../main.c     ****  * THIS SOFTWARE IS PROVIDED "AS IS". NO WARRANTIES, WHETHER EXPRESS, IMPLIED
  10:../main.c     ****  * OR STATUTORY, INCLUDING, BUT NOT LIMITED TO, IMPLIED WARRANTIES OF
  11:../main.c     ****  * MERCHANTABILITY AND FITNESS FOR A PARTICULAR PURPOSE APPLY TO THIS SOFTWARE.
  12:../main.c     ****  * INFINEON SHALL NOT, IN ANY CIRCUMSTANCES, BE LIABLE FOR SPECIAL, INCIDENTAL,
  13:../main.c     ****  * OR CONSEQUENTIAL DAMAGES, FOR ANY REASON WHATSOEVER.
  14:../main.c     ****  *
  15:../main.c     ****  * ATTENTION:
  16:../main.c     ****  * This example demonstrates the ethercat peripheral of XMC 4800. For this purpose an
  17:../main.c     ****  * ethercat slave node implemented inside a library is included into this project.
  18:../main.c     ****  * This library is for demonstration purpose within this example only and is
  19:../main.c     ****  * not certified, not safe and not meant to be used in any other context than here.
  20:../main.c     ****  *
  21:../main.c     ****  */
  22:../main.c     **** 
  23:../main.c     **** 
  24:../main.c     **** /**
  25:../main.c     ****  * @file
  26:../main.c     ****  * @date 2 Dec, 2015
  27:../main.c     ****  * @version 1.0.0
  28:../main.c     ****  *
  29:../main.c     ****  * @brief XMC4800 Relax Kit EtherCat demo example
  30:../main.c     ****  *
  31:../main.c     ****  * This example initializes a generic slave node and makes only sense to be evaluated with a etherc
  32:../main.c     ****  * The generic slave implements 8x1bit and 4x16bit on input-side and
  33:../main.c     ****  * 8x1bit and 4x16bit on output-side.
  34:../main.c     ****  *
  35:../main.c     ****  * Button1 (P15.13) and Button2 (P15.12) on your XMC4800 Relax EtherCAT Kit can be used to control 
  36:../main.c     ****  * master input (IN_GENERIC->IN_GEN_Bit1/2).
  37:../main.c     ****  *
  38:../main.c     ****  * On master output side 8x1bit (OUT_GENERIC->OUT_GEN_Bit1-8) are used to control the state of 8 LE
  39:../main.c     ****  * XMC4800 Relax EtherCAT Kit. Furthermore a 16bit integer (OUT_GENERIC->OUT_GEN_INT1) is used to d
  40:../main.c     ****  * your base board via PWM.
  41:../main.c     ****  *
  42:../main.c     ****  * ATTENTION:
  43:../main.c     ****  * This example demonstrates the ethercat peripheral of XMC 4800. For this purpose an
  44:../main.c     ****  * ethercat slave node implementation inside the library libEthCatGenSlv.a is included into this pr
  45:../main.c     ****  * This library is for demonstration purpose within this example only
  46:../main.c     ****  * and is not certified, not conform and not planned to be used in any other context than this
  47:../main.c     ****  * example here.
  48:../main.c     ****  * For your final product you have to use a slave stack which is prepared for getting certified.
  49:../main.c     ****  * On the market such solutions are available.
  50:../main.c     ****  * Further information on development systems and tools you find here:
  51:../main.c     ****  * https://www.ethercat.org/en/products.html
  52:../main.c     ****  * History <br>
  53:../main.c     ****  *
  54:../main.c     ****  * Version 1.0.0 Initial <br>
  55:../main.c     ****  *
  56:../main.c     ****  */
  57:../main.c     **** 
  58:../main.c     **** #include <DAVE.h>               //Declarations from DAVE Code Generation (includes SFR declaration)
  59:../main.c     **** #include "SSC/Src/XMC_ESCObjects.h"
  60:../main.c     **** 
  61:../main.c     **** #define P_LED1 P4_0
  62:../main.c     **** #define P_LED2 P4_1
  63:../main.c     **** 
  64:../main.c     **** #define MAP2LEVEL(x) ((x==0)?XMC_GPIO_OUTPUT_LEVEL_LOW:XMC_GPIO_OUTPUT_LEVEL_HIGH)
  65:../main.c     **** 
  66:../main.c     **** void Init_ECAT_Adapt_LED ()
  67:../main.c     **** {
 127              	 .loc 2 67 0
 128              	 .cfi_startproc
 129              	 
 130              	 
 131 0000 80B5     	 push {r7,lr}
 132              	.LCFI12:
 133              	 .cfi_def_cfa_offset 8
 134              	 .cfi_offset 7,-8
 135              	 .cfi_offset 14,-4
 136 0002 00AF     	 add r7,sp,#0
 137              	.LCFI13:
 138              	 .cfi_def_cfa_register 7
  68:../main.c     ****   /* Set mode of all LED ports to push-pull and output level to low*/
  69:../main.c     ****   XMC_GPIO_SetMode(P_LED1, XMC_GPIO_MODE_OUTPUT_PUSH_PULL);
 139              	 .loc 2 69 0
 140 0004 0948     	 ldr r0,.L4
 141 0006 0021     	 movs r1,#0
 142 0008 8022     	 movs r2,#128
 143 000a FFF7FEFF 	 bl XMC_GPIO_SetMode
  70:../main.c     ****   XMC_GPIO_SetOutputHigh(P_LED1);
 144              	 .loc 2 70 0
 145 000e 0748     	 ldr r0,.L4
 146 0010 0021     	 movs r1,#0
 147 0012 FFF7FEFF 	 bl XMC_GPIO_SetOutputHigh
  71:../main.c     ****   XMC_GPIO_SetMode(P_LED2, XMC_GPIO_MODE_OUTPUT_PUSH_PULL);
 148              	 .loc 2 71 0
 149 0016 0548     	 ldr r0,.L4
 150 0018 0121     	 movs r1,#1
 151 001a 8022     	 movs r2,#128
 152 001c FFF7FEFF 	 bl XMC_GPIO_SetMode
  72:../main.c     ****   XMC_GPIO_SetOutputHigh(P_LED2);
 153              	 .loc 2 72 0
 154 0020 0248     	 ldr r0,.L4
 155 0022 0121     	 movs r1,#1
 156 0024 FFF7FEFF 	 bl XMC_GPIO_SetOutputHigh
  73:../main.c     **** }
 157              	 .loc 2 73 0
 158 0028 80BD     	 pop {r7,pc}
 159              	.L5:
 160 002a 00BF     	 .align 2
 161              	.L4:
 162 002c 00840248 	 .word 1208124416
 163              	 .cfi_endproc
 164              	.LFE270:
 166              	 .section .text.Init_Relax_Button,"ax",%progbits
 167              	 .align 2
 168              	 .global Init_Relax_Button
 169              	 .thumb
 170              	 .thumb_func
 172              	Init_Relax_Button:
 173              	.LFB271:
  74:../main.c     **** 
  75:../main.c     **** void Init_Relax_Button ()
  76:../main.c     **** {
 174              	 .loc 2 76 0
 175              	 .cfi_startproc
 176              	 
 177              	 
 178 0000 80B5     	 push {r7,lr}
 179              	.LCFI14:
 180              	 .cfi_def_cfa_offset 8
 181              	 .cfi_offset 7,-8
 182              	 .cfi_offset 14,-4
 183 0002 00AF     	 add r7,sp,#0
 184              	.LCFI15:
 185              	 .cfi_def_cfa_register 7
  77:../main.c     ****   /* INITIALIZE BUTTON1 ON PORT 3.4 FOR INPUT */
  78:../main.c     ****   /* Set mode to input tristate */
  79:../main.c     ****   XMC_GPIO_SetMode(P3_4, XMC_GPIO_MODE_INPUT_TRISTATE);
 186              	 .loc 2 79 0
 187 0004 0448     	 ldr r0,.L7
 188 0006 0421     	 movs r1,#4
 189 0008 0022     	 movs r2,#0
 190 000a FFF7FEFF 	 bl XMC_GPIO_SetMode
  80:../main.c     ****   /* Enable digital input. Only needed because P15.13 is an analog port */
  81:../main.c     ****   XMC_GPIO_EnableDigitalInput(P3_4);
 191              	 .loc 2 81 0
 192 000e 0248     	 ldr r0,.L7
 193 0010 0421     	 movs r1,#4
 194 0012 FFF7FEFF 	 bl XMC_GPIO_EnableDigitalInput
  82:../main.c     **** }
 195              	 .loc 2 82 0
 196 0016 80BD     	 pop {r7,pc}
 197              	.L8:
 198              	 .align 2
 199              	.L7:
 200 0018 00830248 	 .word 1208124160
 201              	 .cfi_endproc
 202              	.LFE271:
 204              	 .section .text.main,"ax",%progbits
 205              	 .align 2
 206              	 .global main
 207              	 .thumb
 208              	 .thumb_func
 210              	main:
 211              	.LFB272:
  83:../main.c     **** #if 0
  84:../main.c     **** void process_app(TOBJ7000 *OUT_GENERIC, TOBJ6000 *IN_GENERIC)
  85:../main.c     **** {
  86:../main.c     ****   /* OUTPUT PROCESSING */
  87:../main.c     ****   /* Check bitfield set by master OUT_GEN_Bit1..8 and set LEDs accordingly */
  88:../main.c     ****   XMC_GPIO_SetOutputLevel(P_LED1, MAP2LEVEL(OUT_GENERIC->OUT_GEN_Bit1));
  89:../main.c     ****   XMC_GPIO_SetOutputLevel(P_LED2, MAP2LEVEL(OUT_GENERIC->OUT_GEN_Bit2));
  90:../main.c     **** 
  91:../main.c     ****   /* INPUT PROCESSING */
  92:../main.c     ****   /*Check Button 1 and set IN_GEN_Bit1 which is sent to master accordingly*/
  93:../main.c     ****   if (XMC_GPIO_GetInput(P3_4))
  94:../main.c     ****     IN_GENERIC->IN_GEN_Bit1 = 1;
  95:../main.c     ****   else
  96:../main.c     ****     IN_GENERIC->IN_GEN_Bit1 = 0;
  97:../main.c     **** }
  98:../main.c     **** #endif
  99:../main.c     **** int main(void)
 100:../main.c     **** {
 212              	 .loc 2 100 0
 213              	 .cfi_startproc
 214              	 
 215              	 
 216 0000 80B5     	 push {r7,lr}
 217              	.LCFI16:
 218              	 .cfi_def_cfa_offset 8
 219              	 .cfi_offset 7,-8
 220              	 .cfi_offset 14,-4
 221 0002 82B0     	 sub sp,sp,#8
 222              	.LCFI17:
 223              	 .cfi_def_cfa_offset 16
 224 0004 00AF     	 add r7,sp,#0
 225              	.LCFI18:
 226              	 .cfi_def_cfa_register 7
 101:../main.c     ****   DAVE_STATUS_t status;
 102:../main.c     ****   uint32_t timer=0;
 227              	 .loc 2 102 0
 228 0006 0023     	 movs r3,#0
 229 0008 7B60     	 str r3,[r7,#4]
 103:../main.c     ****   status = DAVE_Init();                     /* Initialization of DAVE APPs  */
 230              	 .loc 2 103 0
 231 000a FFF7FEFF 	 bl DAVE_Init
 232 000e 0346     	 mov r3,r0
 233 0010 FB70     	 strb r3,[r7,#3]
 104:../main.c     **** 
 105:../main.c     ****   Init_ECAT_Adapt_LED ();                   /* Initialize the ports which drive LEDs on EtherCat sh
 234              	 .loc 2 105 0
 235 0012 FFF7FEFF 	 bl Init_ECAT_Adapt_LED
 106:../main.c     ****   Init_Relax_Button();                      /* Initialize buttons on XMC4800 */
 236              	 .loc 2 106 0
 237 0016 FFF7FEFF 	 bl Init_Relax_Button
 107:../main.c     **** 
 108:../main.c     ****   if(status == DAVE_STATUS_FAILURE)
 238              	 .loc 2 108 0
 239 001a FB78     	 ldrb r3,[r7,#3]
 240 001c 012B     	 cmp r3,#1
 241 001e 00D1     	 bne .L10
 242              	.L11:
 109:../main.c     ****   {
 110:../main.c     ****     /* Placeholder for error handler code. The while loop below can be replaced with an user error 
 111:../main.c     ****     XMC_DEBUG("DAVE APPs initialization failed\n");
 112:../main.c     ****     while(1U)
 113:../main.c     ****     {
 114:../main.c     ****     }
 243              	 .loc 2 114 0 discriminator 1
 244 0020 FEE7     	 b .L11
 245              	.L10:
 115:../main.c     ****   }
 116:../main.c     **** 
 117:../main.c     ****   /* Placeholder for user application code. The while loop below can be replaced with user applicat
 118:../main.c     ****   while(1U)
 119:../main.c     ****   {
 120:../main.c     ****     MainLoop();
 246              	 .loc 2 120 0 discriminator 1
 247 0022 FFF7FEFF 	 bl MainLoop
 121:../main.c     ****   }
 248              	 .loc 2 121 0 discriminator 1
 249 0026 FCE7     	 b .L10
 250              	 .cfi_endproc
 251              	.LFE272:
 253              	 .section .text.ERU1_3_IRQHandler,"ax",%progbits
 254              	 .align 2
 255              	 .global ERU1_3_IRQHandler
 256              	 .thumb
 257              	 .thumb_func
 259              	ERU1_3_IRQHandler:
 260              	.LFB273:
 122:../main.c     **** }
 123:../main.c     **** 
 124:../main.c     **** /**
 125:../main.c     **** 
 126:../main.c     ****  * @brief SYNC0IRQHandler() - EtherCAT Interrupt Routine for SYNC0
 127:../main.c     ****  *
 128:../main.c     ****  * <b>Details of function</b><br>
 129:../main.c     ****  * This routine is handling the SYNC0 Interrupts and need to call the SSC Stack
 130:../main.c     ****  */
 131:../main.c     **** void SYNC0IRQHandler (void)
 132:../main.c     **** {
 261              	 .loc 2 132 0
 262              	 .cfi_startproc
 263              	 
 264              	 
 265 0000 80B5     	 push {r7,lr}
 266              	.LCFI19:
 267              	 .cfi_def_cfa_offset 8
 268              	 .cfi_offset 7,-8
 269              	 .cfi_offset 14,-4
 270 0002 00AF     	 add r7,sp,#0
 271              	.LCFI20:
 272              	 .cfi_def_cfa_register 7
 133:../main.c     **** 	Sync0_Isr();
 273              	 .loc 2 133 0
 274 0004 FFF7FEFF 	 bl Sync0_Isr
 134:../main.c     **** }
 275              	 .loc 2 134 0
 276 0008 80BD     	 pop {r7,pc}
 277              	 .cfi_endproc
 278              	.LFE273:
 280 000a 00BF     	 .section .text.ERU1_0_IRQHandler,"ax",%progbits
 281              	 .align 2
 282              	 .global ERU1_0_IRQHandler
 283              	 .thumb
 284              	 .thumb_func
 286              	ERU1_0_IRQHandler:
 287              	.LFB274:
 135:../main.c     **** 
 136:../main.c     **** /**
 137:../main.c     **** 
 138:../main.c     ****  * @brief SYNC1IRQHandler() - EtherCAT Interrupt Routine for SYNC1
 139:../main.c     ****  *
 140:../main.c     ****  * <b>Details of function</b><br>
 141:../main.c     ****  * This routine is handling the SYNC1 Interrupts and need to call the SSC Stack
 142:../main.c     ****  */
 143:../main.c     **** void SYNC1IRQHandler (void)
 144:../main.c     **** {
 288              	 .loc 2 144 0
 289              	 .cfi_startproc
 290              	 
 291              	 
 292 0000 80B5     	 push {r7,lr}
 293              	.LCFI21:
 294              	 .cfi_def_cfa_offset 8
 295              	 .cfi_offset 7,-8
 296              	 .cfi_offset 14,-4
 297 0002 00AF     	 add r7,sp,#0
 298              	.LCFI22:
 299              	 .cfi_def_cfa_register 7
 145:../main.c     **** 	Sync1_Isr();
 300              	 .loc 2 145 0
 301 0004 FFF7FEFF 	 bl Sync1_Isr
 146:../main.c     **** }
 302              	 .loc 2 146 0
 303 0008 80BD     	 pop {r7,pc}
 304              	 .cfi_endproc
 305              	.LFE274:
 307 000a 00BF     	 .text
 308              	.Letext0:
 309              	 .file 3 "c:\\davev4-64bit\\dave-4.3.2\\eclipse\\arm-gcc-49\\arm-none-eabi\\include\\machine\\_default_types.h"
 310              	 .file 4 "c:\\davev4-64bit\\dave-4.3.2\\eclipse\\arm-gcc-49\\arm-none-eabi\\include\\stdint.h"
 311              	 .file 5 "E:/xmc_1124/XMC4300_Relax_EtherCat_APP_Slave_SSC/Libraries/XMCLib/inc/xmc4_gpio.h"
 312              	 .file 6 "E:/xmc_1124/XMC4300_Relax_EtherCat_APP_Slave_SSC/Dave/Generated/DAVE.h"
 313              	 .file 7 "E:/xmc_1124/XMC4300_Relax_EtherCat_APP_Slave_SSC/Libraries/CMSIS/Include/core_cm4.h"
 314              	 .file 8 "E:/xmc_1124/XMC4300_Relax_EtherCat_APP_Slave_SSC/Libraries/CMSIS/Infineon/XMC4300_series/Include/system_XMC4300.h"